(dp1
S'DCG'
p2
(dp3
S'probabilistic'
p4
(dp5
S'RCM'
p6
(lp7
(cnumpy.core.multiarray
_reconstruct
p8
(cnumpy
ndarray
p9
(I0
tS'b'
tRp10
(I1
(I3
tcnumpy
dtype
p11
(S'O8'
I0
I1
tRp12
(I3
S'|'
NNNI-1
I-1
I63
tbI00
(lp13
(I0
I2
I1
I1
I1
tp14
a(I0
I2
I2
I2
I1
tp15
acnumpy.core.multiarray
scalar
p16
(g11
(S'f8'
I0
I1
tRp17
(I3
S'<'
NNNI-1
I-1
I0
tbS'\xbc\x87\x824\x1a\xc8\xfd?'
tRp18
atbF0.62068965517241381
tp19
a(g8
(g9
(I0
tS'b'
tRp20
(I1
(I3
tg12
I00
(lp21
(I1
I1
I0
I0
I1
tp22
a(I0
I2
I1
I0
I1
tp23
ag16
(g17
S"xjj0'a\xe8?"
tRp24
atbF0.59259259259259256
tp25
a(g8
(g9
(I0
tS'b'
tRp26
(I1
(I3
tg12
I00
(lp27
(I0
I0
I2
I1
I2
tp28
a(I1
I1
I1
I2
I2
tp29
ag16
(g17
S'\\"\x9d\x00d\xe0\xf7?'
tRp30
atbF0.34482758620689657
tp31
a(g8
(g9
(I0
tS'b'
tRp32
(I1
(I3
tg12
I00
(lp33
(I2
I2
I1
I0
I0
tp34
a(I2
I1
I2
I2
I1
tp35
ag16
(g17
S'\x04\x99EH \xac\xf6?'
tRp36
atbF0.19230769230769232
tp37
a(g8
(g9
(I0
tS'b'
tRp38
(I1
(I3
tg12
I00
(lp39
(I1
I1
I1
I2
I0
tp40
a(I1
I2
I1
I0
I1
tp41
ag16
(g17
S'0\xb1\xa1l\xe3\xd3\xd6?'
tRp42
atbF0.40000000000000002
tp43
a(g8
(g9
(I0
tS'b'
tRp44
(I1
(I3
tg12
I00
(lp45
(I1
I2
I2
I1
I2
tp46
a(I2
I2
I2
I2
I2
tp47
ag16
(g17
S'\xe0CA\x1a\r\xe4\x06@'
tRp48
atbF0.51851851851851849
tp49
a(g8
(g9
(I0
tS'b'
tRp50
(I1
(I3
tg12
I00
(lp51
(I1
I0
I1
I1
I2
tp52
a(I2
I0
I1
I1
I0
tp53
ag16
(g17
S'\x10\xf0\xb5\x95\xb4\xdc\xea?'
tRp54
atbF0.6333333333333333
tp55
a(g8
(g9
(I0
tS'b'
tRp56
(I1
(I3
tg12
I00
(lp57
(I1
I0
I2
I1
I0
tp58
a(I2
I1
I0
I1
I2
tp59
ag16
(g17
S'L\xd1\x9f\xc0\xf7T\x02@'
tRp60
atbF0.2857142857142857
tp61
a(g8
(g9
(I0
tS'b'
tRp62
(I1
(I3
tg12
I00
(lp63
(I0
I2
I0
I1
I0
tp64
a(I1
I2
I0
I0
I2
tp65
ag16
(g17
S'\x1c\xc4\xe3\x9a\x98\xad\xfb?'
tRp66
atbF0.37037037037037035
tp67
a(g8
(g9
(I0
tS'b'
tRp68
(I1
(I3
tg12
I00
(lp69
(I0
I0
I1
I1
I0
tp70
a(I0
I2
I2
I1
I2
tp71
ag16
(g17
S'\xf55]\xc6\xa06\x10@'
tRp72
atbF0.34482758620689657
tp73
a(g8
(g9
(I0
tS'b'
tRp74
(I1
(I3
tg12
I00
(lp75
(I1
I1
I0
I1
I2
tp76
a(I1
I1
I1
I1
I2
tp77
ag16
(g17
S'\x00\x00\x00\x00\x00\x00\xe0?'
tRp78
atbF0.41379310344827586
tp79
a(g8
(g9
(I0
tS'b'
tRp80
(I1
(I3
tg12
I00
(lp81
(I0
I1
I2
I1
I0
tp82
a(I1
I0
I2
I0
I1
tp83
ag16
(g17
S'\xb0\x90l\xad\xd6\xd0\xd4?'
tRp84
atbF0.62068965517241381
tp85
a(g8
(g9
(I0
tS'b'
tRp86
(I1
(I3
tg12
I00
(lp87
(I2
I0
I0
I2
I2
tp88
a(I2
I2
I2
I0
I1
tp89
ag16
(g17
S'\xf4\xfe\x1d\xf2\x9c;\xf5?'
tRp90
atbF0.4642857142857143
tp91
a(g8
(g9
(I0
tS'b'
tRp92
(I1
(I3
tg12
I00
(lp93
g64
a(I0
I2
I0
I2
I1
tp94
ag16
(g17
S'd\x8a9\xc6\xa6\xf8\xf3?'
tRp95
atbF0.58064516129032262
tp96
a(g8
(g9
(I0
tS'b'
tRp97
(I1
(I3
tg12
I00
(lp98
(I0
I1
I1
I2
I0
tp99
a(I1
I2
I1
I2
I0
tp100
ag16
(g17
S'\x9f\x9a\x1a\xccI\x18\x02@'
tRp101
atbF0.38709677419354838
tp102
a(g8
(g9
(I0
tS'b'
tRp103
(I1
(I3
tg12
I00
(lp104
g58
a(I0
I2
I2
I0
I0
tp105
ag16
(g17
S'\x000:(A\x93\xdd?'
tRp106
atbF0.41379310344827586
tp107
a(g8
(g9
(I0
tS'b'
tRp108
(I1
(I3
tg12
I00
(lp109
(I0
I1
I0
I0
I0
tp110
a(I1
I1
I0
I2
I0
tp111
ag16
(g17
S'\xcc\xe5a\xa7\x13V\x02@'
tRp112
atbF0.5
tp113
a(g8
(g9
(I0
tS'b'
tRp114
(I1
(I3
tg12
I00
(lp115
(I0
I1
I2
I2
I1
tp116
a(I1
I1
I2
I2
I1
tp117
ag16
(g17
S'\x00\x00\x00\x00\x00\x00\xf0?'
tRp118
atbF0.30769230769230771
tp119
a(g8
(g9
(I0
tS'b'
tRp120
(I1
(I3
tg12
I00
(lp121
(I1
I1
I2
I1
I2
tp122
a(I2
I1
I0
I0
I2
tp123
ag16
(g17
S'@\xc2\xeb[.\xbf\xb1?'
tRp124
atbF0.41666666666666669
tp125
a(g8
(g9
(I0
tS'b'
tRp126
(I1
(I3
tg12
I00
(lp127
(I2
I0
I2
I1
I0
tp128
a(I2
I2
I0
I0
I2
tp129
ag16
(g17
S'\xf8\x933\xffu\xf6\xf1?'
tRp130
atbF0.5
tp131
a(g8
(g9
(I0
tS'b'
tRp132
(I1
(I3
tg12
I00
(lp133
g40
ag47
ag16
(g17
S'N\x8fVS\x8e\xb0\x15@'
tRp134
atbF0.37037037037037035
tp135
a(g8
(g9
(I0
tS'b'
tRp136
(I1
(I3
tg12
I00
(lp137
(I2
I0
I1
I0
I2
tp138
a(I2
I1
I2
I0
I0
tp139
ag16
(g17
S'\xa0J\xd6[\x90\x1a\xde?'
tRp140
atbF0.59259259259259256
tp141
a(g8
(g9
(I0
tS'b'
tRp142
(I1
(I3
tg12
I00
(lp143
(I2
I0
I2
I0
I0
tp144
ag122
ag16
(g17
S'\xa03\x07\xdc\xe4o\xcc?'
tRp145
atbF0.43333333333333335
tp146
a(g8
(g9
(I0
tS'b'
tRp147
(I1
(I3
tg12
I00
(lp148
(I0
I2
I0
I0
I2
tp149
a(I2
I2
I1
I0
I1
tp150
ag16
(g17
S'X\xfdHns\xcf\x05@'
tRp151
atbF0.71999999999999997
tp152
a(g8
(g9
(I0
tS'b'
tRp153
(I1
(I3
tg12
I00
(lp154
(I1
I1
I2
I2
I2
tp155
a(I2
I2
I2
I1
I1
tp156
ag16
(g17
S'0\xa8D@`\x07\xfa?'
tRp157
atbF0.33333333333333331
tp158
a(g8
(g9
(I0
tS'b'
tRp159
(I1
(I3
tg12
I00
(lp160
(I0
I0
I0
I1
I1
tp161
a(I2
I2
I0
I0
I1
tp162
ag16
(g17
S'\x00\xa3\x83\x124\xd9\x11@'
tRp163
atbF0.66666666666666663
tp164
a(g8
(g9
(I0
tS'b'
tRp165
(I1
(I3
tg12
I00
(lp166
(I0
I1
I0
I0
I1
tp167
a(I0
I1
I2
I0
I1
tp168
ag16
(g17
S'\x01\x00\x00\x00\x00\x00\xf8?'
tRp169
atbF0.48484848484848486
tp170
a(g8
(g9
(I0
tS'b'
tRp171
(I1
(I3
tg12
I00
(lp172
(I0
I1
I2
I2
I0
tp173
a(I2
I1
I2
I2
I2
tp174
ag16
(g17
S'\xfeAImi\xa4\x10@'
tRp175
atbF0.44444444444444442
tp176
a(g8
(g9
(I0
tS'b'
tRp177
(I1
(I3
tg12
I00
(lp178
(I1
I0
I0
I2
I2
tp179
a(I2
I2
I0
I1
I1
tp180
ag16
(g17
S'h\xa1/\x06\xd5\x0f\x02@'
tRp181
atbF0.33333333333333331
tp182
a(g8
(g9
(I0
tS'b'
tRp183
(I1
(I3
tg12
I00
(lp184
(I0
I1
I1
I1
I2
tp185
a(I2
I0
I2
I0
I2
tp186
ag16
(g17
S'\xc2\x10\xd2\x8c\xd4\x81\x07@'
tRp187
atbF0.58620689655172409
tp188
a(g8
(g9
(I0
tS'b'
tRp189
(I1
(I3
tg12
I00
(lp190
(I1
I0
I1
I0
I0
tp191
a(I0
I1
I0
I2
I1
tp192
ag16
(g17
S'\xbc\xd1*Y\xfb\xe9\xe9?'
tRp193
atbF0.45161290322580644
tp194
a(g8
(g9
(I0
tS'b'
tRp195
(I1
(I3
tg12
I00
(lp196
(I1
I2
I1
I0
I0
tp197
a(I2
I1
I2
I0
I2
tp198
ag16
(g17
S'^\xe9w\x0e\x890\x07@'
tRp199
atbF0.5357142857142857
tp200
a(g8
(g9
(I0
tS'b'
tRp201
(I1
(I3
tg12
I00
(lp202
(I1
I0
I1
I2
I0
tp203
ag76
ag16
(g17
S'pk\xf42U\x87\xdb?'
tRp204
atbF0.51724137931034486
tp205
a(g8
(g9
(I0
tS'b'
tRp206
(I1
(I3
tg12
I00
(lp207
(I0
I1
I2
I1
I1
tp208
a(I0
I0
I2
I2
I1
tp209
ag16
(g17
S'\xe0h?C\x83~\xcd?'
tRp210
atbF0.38461538461538464
tp211
a(g8
(g9
(I0
tS'b'
tRp212
(I1
(I3
tg12
I00
(lp213
(I0
I1
I1
I1
I0
tp214
a(I2
I2
I0
I2
I1
tp215
ag16
(g17
S'\xe8\xaf\x9b\x97N\n\x14@'
tRp216
atbF0.5
tp217
a(g8
(g9
(I0
tS'b'
tRp218
(I1
(I3
tg12
I00
(lp219
g52
a(I1
I0
I2
I2
I1
tp220
ag16
(g17
S'l\x82\x14\x11\x01g\xf1?'
tRp221
atbF0.58064516129032262
tp222
a(g8
(g9
(I0
tS'b'
tRp223
(I1
(I3
tg12
I00
(lp224
(I1
I0
I0
I0
I2
tp225
a(I2
I0
I1
I2
I0
tp226
ag16
(g17
S'\xd0a\xcf\xcc@\r\x05@'
tRp227
atbF0.23333333333333334
tp228
a(g8
(g9
(I0
tS'b'
tRp229
(I1
(I3
tg12
I00
(lp230
g161
a(I0
I2
I2
I2
I2
tp231
ag16
(g17
S':\x17\x10/\x84\x1c\x14@'
tRp232
atbF0.40000000000000002
tp233
a(g8
(g9
(I0
tS'b'
tRp234
(I1
(I3
tg12
I00
(lp235
(I1
I1
I1
I1
I0
tp236
a(I1
I2
I0
I2
I0
tp237
ag16
(g17
S'\xf8\xbc\xb7\xcc\xad\xf8\xf9?'
tRp238
atbF0.46153846153846156
tp239
a(g8
(g9
(I0
tS'b'
tRp240
(I1
(I3
tg12
I00
(lp241
(I1
I2
I0
I2
I1
tp242
a(I2
I1
I0
I2
I2
tp243
ag16
(g17
S'\x14\xd08\x8b\x850\xf8?'
tRp244
atbF0.57692307692307687
tp245
a(g8
(g9
(I0
tS'b'
tRp246
(I1
(I3
tg12
I00
(lp247
(I0
I1
I2
I0
I0
tp248
a(I2
I0
I0
I1
I0
tp249
ag16
(g17
S'<\xa9&N\xc3\xcb\xf4?'
tRp250
atbF0.44444444444444442
tp251
a(g8
(g9
(I0
tS'b'
tRp252
(I1
(I3
tg12
I00
(lp253
(I0
I0
I1
I0
I1
tp254
a(I0
I2
I1
I2
I1
tp255
ag16
(g17
S'\xba\xcd\x89Y\x82z\t@'
tRp256
atbF0.56666666666666665
tp257
a(g8
(g9
(I0
tS'b'
tRp258
(I1
(I3
tg12
I00
(lp259
g99
a(I2
I1
I1
I0
I1
tp260
ag16
(g17
S'\x89\x9by\xa12\xc2\x00@'
tRp261
atbF0.55172413793103448
tp262
a(g8
(g9
(I0
tS'b'
tRp263
(I1
(I3
tg12
I00
(lp264
(I1
I0
I0
I2
I1
tp265
ag242
ag16
(g17
S'\xdc\xcfOd\xddH\xfe?'
tRp266
atbF0.51851851851851849
tp267
a(g8
(g9
(I0
tS'b'
tRp268
(I1
(I3
tg12
I00
(lp269
g139
a(I2
I2
I0
I1
I2
tp270
ag16
(g17
S'\x10\x81\x9bgF\xa6\xf5?'
tRp271
atbF0.46153846153846156
tp272
a(g8
(g9
(I0
tS'b'
tRp273
(I1
(I3
tg12
I00
(lp274
(I0
I0
I2
I0
I0
tp275
ag82
ag16
(g17
S'|\xde[\xe6V\xfc\xf0?'
tRp276
atbF0.5
tp277
a(g8
(g9
(I0
tS'b'
tRp278
(I1
(I3
tg12
I00
(lp279
(I1
I0
I2
I0
I0
tp280
ag53
ag16
(g17
S'\xdcCA\x1a\r\xe4\xf6?'
tRp281
atbF0.62962962962962965
tp282
a(g8
(g9
(I0
tS'b'
tRp283
(I1
(I3
tg12
I00
(lp284
g209
a(I2
I2
I2
I2
I0
tp285
ag16
(g17
S'M3\xa64\x14\x06\x12@'
tRp286
atbF0.47826086956521741
tp287
a(g8
(g9
(I0
tS'b'
tRp288
(I1
(I3
tg12
I00
(lp289
(I2
I1
I0
I2
I1
tp290
a(I2
I1
I1
I1
I2
tp291
ag16
(g17
S'P\xf6\xad\xbb\xfbc\xda?'
tRp292
atbF0.41935483870967744
tp293
a(g8
(g9
(I0
tS'b'
tRp294
(I1
(I3
tg12
I00
(lp295
g191
a(I2
I2
I0
I2
I2
tp296
ag16
(g17
S'\xdb(\x0e\x9a\xaaa\x17@'
tRp297
atbF0.29999999999999999
tp298
a(g8
(g9
(I0
tS'b'
tRp299
(I1
(I3
tg12
I00
(lp300
g110
a(I0
I2
I0
I1
I1
tp301
ag16
(g17
S'\xe0\xbd\x16\xa2\x96\xa2\x00@'
tRp302
atbF0.2857142857142857
tp303
a(g8
(g9
(I0
tS'b'
tRp304
(I1
(I3
tg12
I00
(lp305
g83
ag47
ag16
(g17
S'2h\xa0u\x87\xd5\x17@'
tRp306
atbF0.66666666666666663
tp307
a(g8
(g9
(I0
tS'b'
tRp308
(I1
(I3
tg12
I00
(lp309
g280
a(I0
I2
I0
I1
I2
tp310
ag16
(g17
S'`7lg }\xef?'
tRp311
atbF0.59090909090909094
tp312
a(g8
(g9
(I0
tS'b'
tRp313
(I1
(I3
tg12
I00
(lp314
(I0
I0
I0
I1
I2
tp315
a(I0
I1
I0
I1
I2
tp316
ag16
(g17
S'>55\x98\x930\xe4?'
tRp317
atbF0.34482758620689657
tp318
a(g8
(g9
(I0
tS'b'
tRp319
(I1
(I3
tg12
I00
(lp320
(I1
I1
I1
I1
I1
tp321
a(I1
I2
I2
I2
I0
tp322
ag16
(g17
S'(]\x80\x9d\x10\xe4\x05@'
tRp323
atbF0.46153846153846156
tp324
a(g8
(g9
(I0
tS'b'
tRp325
(I1
(I3
tg12
I00
(lp326
(I0
I0
I1
I2
I0
tp327
a(I2
I0
I0
I1
I2
tp328
ag16
(g17
S'\x1e@Q\xc0\xc5d\x06@'
tRp329
atbF0.25
tp330
a(g8
(g9
(I0
tS'b'
tRp331
(I1
(I3
tg12
I00
(lp332
g70
a(I0
I2
I0
I0
I1
tp333
ag16
(g17
S'\xa7\x8e\xc5\xdb\\\x95\xf5?'
tRp334
atbF0.36666666666666664
tp335
a(g8
(g9
(I0
tS'b'
tRp336
(I1
(I3
tg12
I00
(lp337
(I0
I1
I0
I1
I0
tp338
a(I1
I1
I1
I0
I1
tp339
ag16
(g17
S'\xcc\xbeuw\x7fL\xf7?'
tRp340
atbF0.4642857142857143
tp341
a(g8
(g9
(I0
tS'b'
tRp342
(I1
(I3
tg12
I00
(lp343
g70
ag83
ag16
(g17
S'\xcb\xbeuw\x7fL\xff?'
tRp344
atbF0.37931034482758619
tp345
a(g8
(g9
(I0
tS'b'
tRp346
(I1
(I3
tg12
I00
(lp347
(I0
I1
I2
I0
I2
tp348
a(I2
I2
I1
I0
I2
tp349
ag16
(g17
S'\x9e\x9a\x1a\xccI\x18\n@'
tRp350
atbF0.30769230769230771
tp351
a(g8
(g9
(I0
tS'b'
tRp352
(I1
(I3
tg12
I00
(lp353
(I0
I2
I2
I2
I0
tp354
ag35
ag16
(g17
S'\xb6\xe6\xc0|\xfc\xff\x00@'
tRp355
atbF0.36666666666666664
tp356
a(g8
(g9
(I0
tS'b'
tRp357
(I1
(I3
tg12
I00
(lp358
g339
a(I2
I2
I2
I0
I0
tp359
ag16
(g17
S'J\x19?\x83\x03\x00\x0f@'
tRp360
atbF0.3125
tp361
a(g8
(g9
(I0
tS'b'
tRp362
(I1
(I3
tg12
I00
(lp363
g22
ag242
ag16
(g17
S'j\x80|s]n\x04@'
tRp364
atbF0.53846153846153844
tp365
a(g8
(g9
(I0
tS'b'
tRp366
(I1
(I3
tg12
I00
(lp367
g70
a(I1
I0
I0
I1
I0
tp368
ag16
(g17
S'\x00\x00\x00\x00\x00\x00\xe0?'
tRp369
atbF0.5714285714285714
tp370
a(g8
(g9
(I0
tS'b'
tRp371
(I1
(I3
tg12
I00
(lp372
g237
a(I1
I2
I0
I1
I2
tp373
ag16
(g17
S'\xf0\x00\x8a\x02.&\xd3?'
tRp374
atbF0.61538461538461542
tp375
a(g8
(g9
(I0
tS'b'
tRp376
(I1
(I3
tg12
I00
(lp377
(I0
I2
I2
I1
I1
tp378
ag123
ag16
(g17
S'p\x18\xef\xe1\xf0\x98\xe2?'
tRp379
atbF0.7142857142857143
tp380
a(g8
(g9
(I0
tS'b'
tRp381
(I1
(I3
tg12
I00
(lp382
(I1
I1
I2
I0
I1
tp383
a(I2
I0
I0
I0
I2
tp384
ag16
(g17
S'`\xd5\xa6\xae\x9e\x91\xe4?'
tRp385
atbF0.375
tp386
a(g8
(g9
(I0
tS'b'
tRp387
(I1
(I3
tg12
I00
(lp388
(I1
I2
I2
I2
I1
tp389
a(I2
I2
I1
I2
I0
tp390
ag16
(g17
S'\xb0\xfa\x91\xdc\xe6\x9e\xe3?'
tRp391
atbF0.5
tp392
a(g8
(g9
(I0
tS'b'
tRp393
(I1
(I3
tg12
I00
(lp394
g40
ag156
ag16
(g17
S'\x14\xd8\xb4\xfa\x82L\x0e@'
tRp395
atbF0.76666666666666672
tp396
a(g8
(g9
(I0
tS'b'
tRp397
(I1
(I3
tg12
I00
(lp398
(I1
I0
I0
I1
I1
tp399
ag105
ag16
(g17
S'W\x89W\xb8C4\xf9?'
tRp400
atbF0.5357142857142857
tp401
a(g8
(g9
(I0
tS'b'
tRp402
(I1
(I3
tg12
I00
(lp403
(I1
I2
I1
I1
I0
tp404
ag322
ag16
(g17
S'\xbc\x87\x824\x1a\xc8\xfd?'
tRp405
atbF0.53846153846153844
tp406
a(g8
(g9
(I0
tS'b'
tRp407
(I1
(I3
tg12
I00
(lp408
(I0
I0
I0
I0
I2
tp409
a(I2
I1
I1
I2
I1
tp410
ag16
(g17
S':\x18\xdc\xfd\xd5\x98\x12@'
tRp411
atbF0.46153846153846156
tp412
a(g8
(g9
(I0
tS'b'
tRp413
(I1
(I3
tg12
I00
(lp414
g310
ag123
ag16
(g17
S'\xe8\x86\x89M_\xeb\xf4?'
tRp415
atbF0.23333333333333334
tp416
a(g8
(g9
(I0
tS'b'
tRp417
(I1
(I3
tg12
I00
(lp418
(I1
I2
I2
I0
I0
tp419
ag260
ag16
(g17
S'\xc0\xd6\x1c\x98\x8f\xff\xbf?'
tRp420
atbF0.43333333333333335
tp421
a(g8
(g9
(I0
tS'b'
tRp422
(I1
(I3
tg12
I00
(lp423
g99
a(I1
I1
I2
I2
I0
tp424
ag16
(g17
S'\x01\x00\x00\x00\x00\x00\x00@'
tRp425
atbF0.5
tp426
a(g8
(g9
(I0
tS'b'
tRp427
(I1
(I3
tg12
I00
(lp428
(I1
I0
I0
I0
I0
tp429
a(I2
I0
I0
I0
I0
tp430
ag16
(g17
S'\x00\x00\x00\x00\x00\x00\x00@'
tRp431
atbF0.65384615384615385
tp432
a(g8
(g9
(I0
tS'b'
tRp433
(I1
(I3
tg12
I00
(lp434
g424
a(I2
I1
I0
I2
I0
tp435
ag16
(g17
S'\x00\x00\x00\x00\x00\x00\xe0?'
tRp436
atbF0.35999999999999999
tp437
a(g8
(g9
(I0
tS'b'
tRp438
(I1
(I3
tg12
I00
(lp439
(I1
I0
I2
I1
I1
tp440
a(I0
I1
I1
I2
I2
tp441
ag16
(g17
S'\xa8\x9e,\x90\xf4\x05\xd1?'
tRp442
atbF0.6785714285714286
tp443
a(g8
(g9
(I0
tS'b'
tRp444
(I1
(I3
tg12
I00
(lp445
(I2
I1
I2
I1
I0
tp446
a(I2
I0
I2
I2
I1
tp447
ag16
(g17
S'\x88\xdf=\xf4\xb9\xc0\xe3?'
tRp448
atbF0.45833333333333331
tp449
a(g8
(g9
(I0
tS'b'
tRp450
(I1
(I3
tg12
I00
(lp451
g225
a(I2
I2
I2
I2
I1
tp452
ag16
(g17
S'\x8ae\xe9\xe3\xfa\xa4\x17@'
tRp453
atbF0.46153846153846156
tp454
a(g8
(g9
(I0
tS'b'
tRp455
(I1
(I3
tg12
I00
(lp456
g236
a(I2
I1
I1
I1
I1
tp457
ag16
(g17
S'T\x81\xdbHF\x18\x03@'
tRp458
atbF0.42307692307692307
tp459
a(g8
(g9
(I0
tS'b'
tRp460
(I1
(I3
tg12
I00
(lp461
g322
ag291
ag16
(g17
S'\x00`\xa9\r\xfd\x1e\xa3?'
tRp462
atbF0.45161290322580644
tp463
a(g8
(g9
(I0
tS'b'
tRp464
(I1
(I3
tg12
I00
(lp465
(I0
I1
I0
I1
I1
tp466
a(I1
I2
I0
I0
I1
tp467
ag16
(g17
S'`\xf1\xf3}\x86L\xfd?'
tRp468
atbF0.70967741935483875
tp469
a(g8
(g9
(I0
tS'b'
tRp470
(I1
(I3
tg12
I00
(lp471
(I0
I1
I1
I0
I0
tp472
a(I1
I0
I0
I1
I2
tp473
ag16
(g17
S'5\xb1K\x03i]\xf7?'
tRp474
atbF0.37037037037037035
tp475
a(g8
(g9
(I0
tS'b'
tRp476
(I1
(I3
tg12
I00
(lp477
g467
ag41
ag16
(g17
S'\x00\x00\x00\x00\x00\x00\xe0?'
tRp478
atbF0.48148148148148145
tp479
a(g8
(g9
(I0
tS'b'
tRp480
(I1
(I3
tg12
I00
(lp481
(I0
I2
I1
I1
I2
tp482
a(I2
I1
I2
I0
I1
tp483
ag16
(g17
S'\x98\x81\x1b*F\x8a\xf8?'
tRp484
atbF0.6875
tp485
a(g8
(g9
(I0
tS'b'
tRp486
(I1
(I3
tg12
I00
(lp487
(I1
I0
I2
I2
I0
tp488
ag162
ag16
(g17
S'\xec\x06C\xa7B\xcd\xf7?'
tRp489
atbF0.41666666666666669
tp490
a(g8
(g9
(I0
tS'b'
tRp491
(I1
(I3
tg12
I00
(lp492
g237
a(I2
I0
I2
I1
I2
tp493
ag16
(g17
S'`\xb0R\x1c\xae\x80\xfe?'
tRp494
atbF0.58620689655172409
tp495
a(g8
(g9
(I0
tS'b'
tRp496
(I1
(I3
tg12
I00
(lp497
(I0
I0
I0
I2
I1
tp498
ag52
ag16
(g17
S'\x95}\xeb\xee\xfe\x98\xf6?'
tRp499
atbF0.68965517241379315
tp500
a(g8
(g9
(I0
tS'b'
tRp501
(I1
(I3
tg12
I00
(lp502
g339
ag34
ag16
(g17
S'J\x19?\x83\x03\x00\x07@'
tRp503
atbF0.36666666666666664
tp504
a(g8
(g9
(I0
tS'b'
tRp505
(I1
(I3
tg12
I00
(lp506
(I1
I0
I1
I0
I2
tp507
ag285
ag16
(g17
S'\xdf\xa4{\xbf\xd7\x18\x14@'
tRp508
atbF0.5
tp509
a(g8
(g9
(I0
tS'b'
tRp510
(I1
(I3
tg12
I00
(lp511
(I1
I2
I0
I1
I0
tp512
ag488
ag16
(g17
S'\x80\xdf\xca@\xf3\xfc\xdd?'
tRp513
atbF0.38709677419354838
tp514
a(g8
(g9
(I0
tS'b'
tRp515
(I1
(I3
tg12
I00
(lp516
g290
ag447
ag16
(g17
S'\xc0\xca\xcagl\xcf\xeb?'
tRp517
atbF0.53333333333333333
tp518
a(g8
(g9
(I0
tS'b'
tRp519
(I1
(I3
tg12
I00
(lp520
(I0
I2
I1
I2
I2
tp521
ag180
ag16
(g17
S'\xe8\xe5\x1eP\x99\xad\xeb?'
tRp522
atbF0.58620689655172409
tp523
a(g8
(g9
(I0
tS'b'
tRp524
(I1
(I3
tg12
I00
(lp525
g225
a(I1
I1
I0
I2
I2
tp526
ag16
(g17
S'8f\xde\x1aq\xc4\xfe?'
tRp527
atbF0.4642857142857143
tp528
a(g8
(g9
(I0
tS'b'
tRp529
(I1
(I3
tg12
I00
(lp530
g161
a(I0
I0
I2
I1
I0
tp531
ag16
(g17
S'X\xfdHns\xcf\xf1?'
tRp532
atbF0.37931034482758619
tp533
a(g8
(g9
(I0
tS'b'
tRp534
(I1
(I3
tg12
I00
(lp535
g493
ag215
ag16
(g17
S' I\x91\xd5y\xbf\xde?'
tRp536
atbF0.23999999999999999
tp537
a(g8
(g9
(I0
tS'b'
tRp538
(I1
(I3
tg12
I00
(lp539
g70
ag301
ag16
(g17
S'\x83\xd2\x06\xf6iy\xfc?'
tRp540
atbF0.70370370370370372
tp541
a(g8
(g9
(I0
tS'b'
tRp542
(I1
(I3
tg12
I00
(lp543
g466
a(I2
I0
I0
I1
I1
tp544
ag16
(g17
S'\xb0\xb2\xf2\x19\xdb\xf3\x02@'
tRp545
atbF0.75
tp546
a(g8
(g9
(I0
tS'b'
tRp547
(I1
(I3
tg12
I00
(lp548
(I1
I0
I2
I0
I2
tp549
ag122
ag16
(g17
S'|\xde[\xe6V\xfc\xf0?'
tRp550
atbF0.38461538461538464
tp551
asS'SDCM'
p552
(lp553
(g10
F1
tp554
a(g20
F1
tp555
a(g26
F0.37142857142857144
tp556
a(g32
F0
tp557
a(g38
F0.77142857142857146
tp558
a(g44
F1
tp559
a(g50
F1
tp560
a(g56
F0.48571428571428571
tp561
a(g62
F0
tp562
a(g68
F0.59999999999999998
tp563
a(g74
F0.48571428571428571
tp564
a(g80
F1
tp565
a(g86
F0
tp566
a(g92
F1
tp567
a(g97
F0.20000000000000001
tp568
a(g103
F0
tp569
a(g108
F0.77142857142857146
tp570
a(g114
F0
tp571
a(g120
F0.48571428571428571
tp572
a(g126
F1
tp573
a(g132
F0.17142857142857143
tp574
a(g136
F1
tp575
a(g142
F0.5714285714285714
tp576
a(g147
F1
tp577
a(g153
F0
tp578
a(g159
F1
tp579
a(g165
F1
tp580
a(g171
F1
tp581
a(g177
F0.45714285714285713
tp582
a(g183
F1
tp583
a(g189
F0.45714285714285713
tp584
a(g195
F1
tp585
a(g201
F0.74285714285714288
tp586
a(g206
F0
tp587
a(g212
F1
tp588
a(g218
F0.80000000000000004
tp589
a(g223
F1
tp590
a(g229
F1
tp591
a(g234
F0.5714285714285714
tp592
a(g240
F1
tp593
a(g246
F1
tp594
a(g252
F1
tp595
a(g258
F1
tp596
a(g263
F0.5714285714285714
tp597
a(g268
F1
tp598
a(g273
F0.59999999999999998
tp599
a(g278
F0.7142857142857143
tp600
a(g283
F1
tp601
a(g288
F0
tp602
a(g294
F0.54285714285714282
tp603
a(g299
F0.42857142857142855
tp604
a(g304
F1
tp605
a(g308
F1
tp606
a(g313
F0
tp607
a(g319
F0.5714285714285714
tp608
a(g325
F1
tp609
a(g331
F0.2857142857142857
tp610
a(g336
F0.6470588235294118
tp611
a(g342
F0.37142857142857144
tp612
a(g346
F0
tp613
a(g352
F1
tp614
a(g357
F0.2857142857142857
tp615
a(g362
F0.48571428571428571
tp616
a(g366
F0.77419354838709675
tp617
a(g371
F0
tp618
a(g376
F1
tp619
a(g381
F0.45714285714285713
tp620
a(g387
F0
tp621
a(g393
F0.54285714285714282
tp622
a(g397
F0.45714285714285713
tp623
a(g402
F1
tp624
a(g407
F1
tp625
a(g413
F0
tp626
a(g417
F0.68571428571428572
tp627
a(g422
F0.8571428571428571
tp628
a(g427
F1
tp629
a(g433
F0.48571428571428571
tp630
a(g438
F0.42857142857142855
tp631
a(g444
F0
tp632
a(g450
F0.51428571428571423
tp633
a(g455
F0.11428571428571428
tp634
a(g460
F1
tp635
a(g464
F1
tp636
a(g470
F0.2857142857142857
tp637
a(g476
F0
tp638
a(g480
F1
tp639
a(g486
F0.37142857142857144
tp640
a(g491
F1
tp641
a(g496
F1
tp642
a(g501
F0.54285714285714282
tp643
a(g505
F0.48571428571428571
tp644
a(g510
F0.17142857142857143
tp645
a(g515
F1
tp646
a(g519
F1
tp647
a(g524
F1
tp648
a(g529
F0.25714285714285712
tp649
a(g534
F0
tp650
a(g538
F1
tp651
a(g542
F1
tp652
a(g547
F0.22857142857142856
tp653
assS'team'
p654
(dp655
g6
(lp656
(g10
F0.5
tp657
a(g20
F0.52173913043478259
tp658
a(g26
F0.54545454545454541
tp659
a(g32
F0.66666666666666663
tp660
a(g38
F0.45454545454545453
tp661
a(g44
F0.63636363636363635
tp662
a(g50
F0.5
tp663
a(g56
F0.72727272727272729
tp664
a(g62
F0.42857142857142855
tp665
a(g68
F0.40000000000000002
tp666
a(g74
F0.62962962962962965
tp667
a(g80
F0.45454545454545453
tp668
a(g86
F0.47619047619047616
tp669
a(g92
F0.52631578947368418
tp670
a(g97
F0.59999999999999998
tp671
a(g103
F0.45833333333333331
tp672
a(g108
F0.63636363636363635
tp673
a(g114
F0.59090909090909094
tp674
a(g120
F0.45000000000000001
tp675
a(g126
F0.31578947368421051
tp676
a(g132
F0.40909090909090912
tp677
a(g136
F0.42857142857142855
tp678
a(g142
F0.47999999999999998
tp679
a(g147
F0.48148148148148145
tp680
a(g153
F0.54545454545454541
tp681
a(g159
F0.2857142857142857
tp682
a(g165
F0.5357142857142857
tp683
a(g171
F0.375
tp684
a(g177
F0.5
tp685
a(g183
F0.47826086956521741
tp686
a(g189
F0.47999999999999998
tp687
a(g195
F0.34782608695652173
tp688
a(g201
F0.5
tp689
a(g206
F0.54166666666666663
tp690
a(g212
F0.5
tp691
a(g218
F0.27586206896551724
tp692
a(g223
F0.54545454545454541
tp693
a(g229
F0.47826086956521741
tp694
a(g234
F0.40740740740740738
tp695
a(g240
F0.65000000000000002
tp696
a(g246
F0.52941176470588236
tp697
a(g252
F0.45000000000000001
tp698
a(g258
F0.5
tp699
a(g263
F0.39130434782608697
tp700
a(g268
F0.47826086956521741
tp701
a(g273
F0.38095238095238093
tp702
a(g278
F0.52173913043478259
tp703
a(g283
F0.55000000000000004
tp704
a(g288
F0.36363636363636365
tp705
a(g294
F0.40000000000000002
tp706
a(g299
F0.25
tp707
a(g304
F0.5
tp708
a(g308
F0.56521739130434778
tp709
a(g313
F0.44444444444444442
tp710
a(g319
F0.46153846153846156
tp711
a(g325
F0.5357142857142857
tp712
a(g331
F0.52000000000000002
tp713
a(g336
F0.40000000000000002
tp714
a(g342
F0.3888888888888889
tp715
a(g346
F0.59999999999999998
tp716
a(g352
F0.36842105263157893
tp717
a(g357
F0.55555555555555558
tp718
a(g362
F0.42857142857142855
tp719
a(g366
F0.59090909090909094
tp720
a(g371
F0.5714285714285714
tp721
a(g376
F0.36363636363636365
tp722
a(g381
F0.5
tp723
a(g387
F0.59999999999999998
tp724
a(g393
F0.39130434782608697
tp725
a(g397
F0.52173913043478259
tp726
a(g402
F0.65000000000000002
tp727
a(g407
F0.47058823529411764
tp728
a(g413
F0.36363636363636365
tp729
a(g417
F0.45454545454545453
tp730
a(g422
F0.44
tp731
a(g427
F0.52173913043478259
tp732
a(g433
F0.42857142857142855
tp733
a(g438
F0.52000000000000002
tp734
a(g444
F0.40000000000000002
tp735
a(g450
F0.375
tp736
a(g455
F0.58333333333333337
tp737
a(g460
F0.42857142857142855
tp738
a(g464
F0.5714285714285714
tp739
a(g470
F0.58333333333333337
tp740
a(g476
F0.61904761904761907
tp741
a(g480
F0.60869565217391308
tp742
a(g486
F0.70833333333333337
tp743
a(g491
F0.43478260869565216
tp744
a(g496
F0.44
tp745
a(g501
F0.3888888888888889
tp746
a(g505
F0.5
tp747
a(g510
F0.69999999999999996
tp748
a(g515
F0.5
tp749
a(g519
F0.60869565217391308
tp750
a(g524
F0.38095238095238093
tp751
a(g529
F0.55000000000000004
tp752
a(g534
F0.75
tp753
a(g538
F0.45454545454545453
tp754
a(g542
F0.40000000000000002
tp755
a(g547
F0.375
tp756
asg552
(lp757
(g10
F0.20000000000000001
tp758
a(g20
F0.76190476190476186
tp759
a(g26
F0.92592592592592593
tp760
a(g32
F0.91666666666666663
tp761
a(g38
F0.64000000000000001
tp762
a(g44
F0.6333333333333333
tp763
a(g50
F0.5625
tp764
a(g56
F0.967741935483871
tp765
a(g62
F0.48148148148148145
tp766
a(g68
F1
tp767
a(g74
F0.8125
tp768
a(g80
F0.65517241379310343
tp769
a(g86
F1
tp770
a(g92
F0.44
tp771
a(g97
F1
tp772
a(g103
F0.76923076923076927
tp773
a(g108
F0.9285714285714286
tp774
a(g114
F0.71999999999999997
tp775
a(g120
F0.55555555555555558
tp776
a(g126
F0.96153846153846156
tp777
a(g132
F0.5757575757575758
tp778
a(g136
F0.29629629629629628
tp779
a(g142
F0.17857142857142858
tp780
a(g147
F1
tp781
a(g153
F0.48148148148148145
tp782
a(g159
F1
tp783
a(g165
F0.75
tp784
a(g171
F0.95833333333333337
tp785
a(g177
F0.96551724137931039
tp786
a(g183
F1
tp787
a(g189
F0.48275862068965519
tp788
a(g195
F0.87096774193548387
tp789
a(g201
F0.44444444444444442
tp790
a(g206
F0.59999999999999998
tp791
a(g212
F1
tp792
a(g218
F0.66666666666666663
tp793
a(g223
F1
tp794
a(g229
F1
tp795
a(g234
F0.5714285714285714
tp796
a(g240
F0.6071428571428571
tp797
a(g246
F0.77272727272727271
tp798
a(g252
F1
tp799
a(g258
F0.8928571428571429
tp800
a(g263
F0.80000000000000004
tp801
a(g268
F0.14285714285714285
tp802
a(g273
F0.73913043478260865
tp803
a(g278
F0.39130434782608697
tp804
a(g283
F1
tp805
a(g288
F0.090909090909090912
tp806
a(g294
F0.625
tp807
a(g299
F0.7931034482758621
tp808
a(g304
F0.72413793103448276
tp809
a(g308
F0.60869565217391308
tp810
a(g313
F0.84615384615384615
tp811
a(g319
F0.53846153846153844
tp812
a(g325
F0.95833333333333337
tp813
a(g331
F0.95999999999999996
tp814
a(g336
F0.76666666666666672
tp815
a(g342
F0.72727272727272729
tp816
a(g346
F1
tp817
a(g352
F0.96875
tp818
a(g357
F1
tp819
a(g362
F0.53333333333333333
tp820
a(g366
F0.66666666666666663
tp821
a(g371
F0.44827586206896552
tp822
a(g376
F0.8571428571428571
tp823
a(g381
F0.61290322580645162
tp824
a(g387
F0.88461538461538458
tp825
a(g393
F0.75
tp826
a(g397
F0.80000000000000004
tp827
a(g402
F0.72413793103448276
tp828
a(g407
F1
tp829
a(g413
F0.9375
tp830
a(g417
F0.8928571428571429
tp831
a(g422
F0.82608695652173914
tp832
a(g427
F1
tp833
a(g433
F0.30434782608695654
tp834
a(g438
F0.375
tp835
a(g444
F0.9285714285714286
tp836
a(g450
F0.6875
tp837
a(g455
F0.47826086956521741
tp838
a(g460
F0.32258064516129031
tp839
a(g464
F0.75862068965517238
tp840
a(g470
F0.63636363636363635
tp841
a(g476
F0.26666666666666666
tp842
a(g480
F0.90322580645161288
tp843
a(g486
F1
tp844
a(g491
F0.5
tp845
a(g496
F0.90322580645161288
tp846
a(g501
F1
tp847
a(g505
F0.625
tp848
a(g510
F0.54545454545454541
tp849
a(g515
F1
tp850
a(g519
F0.88888888888888884
tp851
a(g524
F0.75
tp852
a(g529
F0.9285714285714286
tp853
a(g534
F0.12
tp854
a(g538
F0.96666666666666667
tp855
a(g542
F0.8666666666666667
tp856
a(g547
F0.8214285714285714
tp857
asssS'ERR'
p858
(dp859
g4
(dp860
g6
(lp861
(g8
(g9
(I0
tS'b'
tRp862
(I1
(I3
tg12
I00
(lp863
g255
ag138
aF0.36562500000000003
atbF0.39130434782608697
tp864
a(g8
(g9
(I0
tS'b'
tRp865
(I1
(I3
tg12
I00
(lp866
g70
a(I1
I0
I1
I2
I2
tp867
aF0.30885416666666671
atbF0.42857142857142855
tp868
a(g8
(g9
(I0
tS'b'
tRp869
(I1
(I3
tg12
I00
(lp870
(I0
I0
I1
I2
I2
tp871
a(I1
I2
I1
I2
I2
tp872
aF0.32643229166666665
atbF0.65384615384615385
tp873
a(g8
(g9
(I0
tS'b'
tRp874
(I1
(I3
tg12
I00
(lp875
g507
a(I2
I2
I1
I1
I2
tp876
aF0.46028645833333337
atbF0.16666666666666666
tp877
a(g8
(g9
(I0
tS'b'
tRp878
(I1
(I3
tg12
I00
(lp879
g368
ag53
aF0.48567708333333337
atbF0.39130434782608697
tp880
a(g8
(g9
(I0
tS'b'
tRp881
(I1
(I3
tg12
I00
(lp882
(I0
I2
I0
I2
I0
tp883
ag349
aF0.43411458333333341
atbF0.51724137931034486
tp884
a(g8
(g9
(I0
tS'b'
tRp885
(I1
(I3
tg12
I00
(lp886
g94
a(I2
I1
I2
I1
I1
tp887
aF0.40781249999999997
atbF0.34782608695652173
tp888
a(g8
(g9
(I0
tS'b'
tRp889
(I1
(I3
tg12
I00
(lp890
g52
ag29
aF0.074609374999999978
atbF0.34482758620689657
tp891
a(g8
(g9
(I0
tS'b'
tRp892
(I1
(I3
tg12
I00
(lp893
g249
a(I2
I2
I1
I2
I1
tp894
aF0.092708333333333393
atbF0.6071428571428571
tp895
a(g8
(g9
(I0
tS'b'
tRp896
(I1
(I3
tg12
I00
(lp897
g208
ag390
aF0.52649739583333344
atbF0.5714285714285714
tp898
a(g8
(g9
(I0
tS'b'
tRp899
(I1
(I3
tg12
I00
(lp900
g419
ag493
aF0.24531250000000004
atbF0.40000000000000002
tp901
a(g8
(g9
(I0
tS'b'
tRp902
(I1
(I3
tg12
I00
(lp903
g215
a(I2
I2
I2
I0
I2
tp904
aF0.0054687500000000222
atbF0.69230769230769229
tp905
a(g8
(g9
(I0
tS'b'
tRp906
(I1
(I3
tg12
I00
(lp907
(I0
I0
I2
I2
I0
tp908
ag383
aF0.19453124999999999
atbF0.44827586206896552
tp909
a(g8
(g9
(I0
tS'b'
tRp910
(I1
(I3
tg12
I00
(lp911
(I2
I0
I2
I1
I1
tp912
a(I2
I2
I1
I2
I2
tp913
aF0.040755208333333348
atbF0.19230769230769232
tp914
a(g8
(g9
(I0
tS'b'
tRp915
(I1
(I3
tg12
I00
(lp916
g512
ag419
aF0.03515625
atbF0.44
tp917
a(g8
(g9
(I0
tS'b'
tRp918
(I1
(I3
tg12
I00
(lp919
g214
ag389
aF0.36484375000000002
atbF0.47999999999999998
tp920
a(g8
(g9
(I0
tS'b'
tRp921
(I1
(I3
tg12
I00
(lp922
(I0
I1
I2
I1
I2
tp923
a(I0
I2
I2
I0
I2
tp924
aF0.1015625
atbF0.62068965517241381
tp925
a(g8
(g9
(I0
tS'b'
tRp926
(I1
(I3
tg12
I00
(lp927
g265
ag488
aF0.072656249999999978
atbF0.48148148148148145
tp928
a(g8
(g9
(I0
tS'b'
tRp929
(I1
(I3
tg12
I00
(lp930
g447
ag483
aF0.0054687500000000222
atbF0.40740740740740738
tp931
a(g8
(g9
(I0
tS'b'
tRp932
(I1
(I3
tg12
I00
(lp933
(I2
I0
I0
I2
I1
tp934
a(I2
I0
I1
I2
I2
tp935
aF0.01302083333333337
atbF0.4642857142857143
tp936
a(g8
(g9
(I0
tS'b'
tRp937
(I1
(I3
tg12
I00
(lp938
g254
a(I0
I1
I0
I2
I2
tp939
aF0.17291666666666669
atbF0.28000000000000003
tp940
a(g8
(g9
(I0
tS'b'
tRp941
(I1
(I3
tg12
I00
(lp942
g354
a(I2
I2
I1
I1
I1
tp943
aF0.40442708333333333
atbF0.40000000000000002
tp944
a(g8
(g9
(I0
tS'b'
tRp945
(I1
(I3
tg12
I00
(lp946
g473
ag162
aF0.46562500000000007
atbF0.2413793103448276
tp947
a(g8
(g9
(I0
tS'b'
tRp948
(I1
(I3
tg12
I00
(lp949
g348
ag123
aF0.46874999999999994
atbF0.78125
tp950
a(g8
(g9
(I0
tS'b'
tRp951
(I1
(I3
tg12
I00
(lp952
g440
ag197
aF0.090625000000000011
atbF0.58064516129032262
tp953
a(g8
(g9
(I0
tS'b'
tRp954
(I1
(I3
tg12
I00
(lp955
g128
ag390
aF0.04134114583333337
atbF0.51724137931034486
tp956
a(g8
(g9
(I0
tS'b'
tRp957
(I1
(I3
tg12
I00
(lp958
g22
ag105
aF0.065624999999999989
atbF0.71875
tp959
a(g8
(g9
(I0
tS'b'
tRp960
(I1
(I3
tg12
I00
(lp961
g419
a(I2
I1
I1
I0
I2
tp962
aF0.23984375000000002
atbF0.5
tp963
a(g8
(g9
(I0
tS'b'
tRp964
(I1
(I3
tg12
I00
(lp965
(I2
I0
I0
I0
I1
tp966
ag384
aF0.025000000000000022
atbF0.5357142857142857
tp967
a(g8
(g9
(I0
tS'b'
tRp968
(I1
(I3
tg12
I00
(lp969
g94
ag76
aF0.017187500000000022
atbF0.45161290322580644
tp970
a(g8
(g9
(I0
tS'b'
tRp971
(I1
(I3
tg12
I00
(lp972
g214
a(I2
I1
I1
I0
I0
tp973
aF0.57421875
atbF0.73333333333333328
tp974
a(g8
(g9
(I0
tS'b'
tRp975
(I1
(I3
tg12
I00
(lp976
g939
ag174
aF0.544921875
atbF0.22222222222222221
tp977
a(g8
(g9
(I0
tS'b'
tRp978
(I1
(I3
tg12
I00
(lp979
g338
a(I2
I2
I0
I1
I0
tp980
aF0.67578125
atbF0.4642857142857143
tp981
a(g8
(g9
(I0
tS'b'
tRp982
(I1
(I3
tg12
I00
(lp983
(I1
I1
I2
I0
I2
tp984
ag156
aF0.35546875
atbF0.35999999999999999
tp985
a(g8
(g9
(I0
tS'b'
tRp986
(I1
(I3
tg12
I00
(lp987
g99
a(I2
I0
I1
I0
I0
tp988
aF0.47786458333333337
atbF0.29166666666666669
tp989
a(g8
(g9
(I0
tS'b'
tRp990
(I1
(I3
tg12
I00
(lp991
(I0
I0
I2
I0
I1
tp992
ag139
aF0.56562500000000004
atbF0.40000000000000002
tp993
a(g8
(g9
(I0
tS'b'
tRp994
(I1
(I3
tg12
I00
(lp995
g507
a(I2
I1
I2
I2
I0
tp996
aF0.44003906250000002
atbF0.52941176470588236
tp997
a(g8
(g9
(I0
tS'b'
tRp998
(I1
(I3
tg12
I00
(lp999
(I0
I0
I0
I2
I2
tp1000
ag242
aF0.34375
atbF0.51851851851851849
tp1001
a(g8
(g9
(I0
tS'b'
tRp1002
(I1
(I3
tg12
I00
(lp1003
(I0
I1
I1
I0
I2
tp1004
a(I1
I0
I1
I1
I1
tp1005
aF0.096875000000000044
atbF0.35714285714285715
tp1006
a(g8
(g9
(I0
tS'b'
tRp1007
(I1
(I3
tg12
I00
(lp1008
g472
ag265
aF0.21250000000000002
atbF0.41666666666666669
tp1009
a(g8
(g9
(I0
tS'b'
tRp1010
(I1
(I3
tg12
I00
(lp1011
g871
ag373
aF0.3119791666666667
atbF0.5
tp1012
a(g8
(g9
(I0
tS'b'
tRp1013
(I1
(I3
tg12
I00
(lp1014
g441
a(I2
I2
I2
I1
I0
tp1015
aF0.54628906249999998
atbF0.6428571428571429
tp1016
a(g8
(g9
(I0
tS'b'
tRp1017
(I1
(I3
tg12
I00
(lp1018
(I1
I2
I2
I0
I2
tp1019
ag447
aF0.23984374999999991
atbF0.62962962962962965
tp1020
a(g8
(g9
(I0
tS'b'
tRp1021
(I1
(I3
tg12
I00
(lp1022
g28
a(I1
I2
I1
I2
I1
tp1023
aF0.28124999999999994
atbF0.48148148148148145
tp1024
a(g8
(g9
(I0
tS'b'
tRp1025
(I1
(I3
tg12
I00
(lp1026
g473
ag47
aF0.48164062500000004
atbF0.53846153846153844
tp1027
a(g8
(g9
(I0
tS'b'
tRp1028
(I1
(I3
tg12
I00
(lp1029
g40
ag1015
aF0.390625
atbF0.53333333333333333
tp1030
a(g8
(g9
(I0
tS'b'
tRp1031
(I1
(I3
tg12
I00
(lp1032
g88
a(I2
I2
I0
I0
I0
tp1033
aF0.037499999999999978
atbF0.375
tp1034
a(g8
(g9
(I0
tS'b'
tRp1035
(I1
(I3
tg12
I00
(lp1036
g185
a(I0
I2
I2
I1
I0
tp1037
aF0.15546874999999999
atbF0.39130434782608697
tp1038
a(g8
(g9
(I0
tS'b'
tRp1039
(I1
(I3
tg12
I00
(lp1040
(I1
I2
I0
I0
I0
tp1041
ag912
aF0.28749999999999998
atbF0.20689655172413793
tp1042
a(g8
(g9
(I0
tS'b'
tRp1043
(I1
(I3
tg12
I00
(lp1044
(I1
I0
I2
I2
I2
tp1045
ag197
aF0.067187500000000011
atbF0.55555555555555558
tp1046
a(g8
(g9
(I0
tS'b'
tRp1047
(I1
(I3
tg12
I00
(lp1048
g209
ag111
aF0.14921875000000001
atbF0.62962962962962965
tp1049
a(g8
(g9
(I0
tS'b'
tRp1050
(I1
(I3
tg12
I00
(lp1051
g248
ag384
aF0.47499999999999998
atbF0.86206896551724133
tp1052
a(g8
(g9
(I0
tS'b'
tRp1053
(I1
(I3
tg12
I00
(lp1054
(I0
I0
I1
I0
I0
tp1055
a(I0
I2
I1
I0
I2
tp1056
aF0.34062500000000001
atbF0.45454545454545453
tp1057
a(g8
(g9
(I0
tS'b'
tRp1058
(I1
(I3
tg12
I00
(lp1059
g883
ag83
aF0.025000000000000022
atbF0.48275862068965519
tp1060
a(g8
(g9
(I0
tS'b'
tRp1061
(I1
(I3
tg12
I00
(lp1062
g105
ag197
aF0.109375
atbF0.72413793103448276
tp1063
a(g8
(g9
(I0
tS'b'
tRp1064
(I1
(I3
tg12
I00
(lp1065
(I1
I2
I1
I1
I1
tp1066
a(I2
I0
I1
I2
I1
tp1067
aF0.24739583333333337
atbF0.5
tp1068
a(g8
(g9
(I0
tS'b'
tRp1069
(I1
(I3
tg12
I00
(lp1070
g466
ag243
aF0.62343750000000009
atbF0.66666666666666663
tp1071
a(g8
(g9
(I0
tS'b'
tRp1072
(I1
(I3
tg12
I00
(lp1073
g111
ag197
aF0.09765625
atbF0.7857142857142857
tp1074
a(g8
(g9
(I0
tS'b'
tRp1075
(I1
(I3
tg12
I00
(lp1076
g908
ag100
aF0.2763671875
atbF0.44
tp1077
a(g8
(g9
(I0
tS'b'
tRp1078
(I1
(I3
tg12
I00
(lp1079
(I1
I2
I2
I0
I1
tp1080
a(I2
I1
I2
I1
I2
tp1081
aF0.255859375
atbF0.90625
tp1082
a(g8
(g9
(I0
tS'b'
tRp1083
(I1
(I3
tg12
I00
(lp1084
g507
ag1056
aF0.027083333333333348
atbF0.54166666666666663
tp1085
a(g8
(g9
(I0
tS'b'
tRp1086
(I1
(I3
tg12
I00
(lp1087
g105
ag123
aF0.37187499999999996
atbF0.35483870967741937
tp1088
a(g8
(g9
(I0
tS'b'
tRp1089
(I1
(I3
tg12
I00
(lp1090
(I1
I1
I1
I0
I2
tp1091
ag467
aF0.086718750000000011
atbF0.44444444444444442
tp1092
a(g8
(g9
(I0
tS'b'
tRp1093
(I1
(I3
tg12
I00
(lp1094
g992
ag531
aF0.0031249999999999889
atbF0.47826086956521741
tp1095
a(g8
(g9
(I0
tS'b'
tRp1096
(I1
(I3
tg12
I00
(lp1097
g410
ag285
aF0.037304687500000044
atbF0.46153846153846156
tp1098
a(g8
(g9
(I0
tS'b'
tRp1099
(I1
(I3
tg12
I00
(lp1100
g214
ag225
aF0.13984374999999999
atbF0.5
tp1101
a(g8
(g9
(I0
tS'b'
tRp1102
(I1
(I3
tg12
I00
(lp1103
(I2
I1
I0
I0
I0
tp1104
ag1033
aF0.0625
atbF0.55172413793103448
tp1105
a(g8
(g9
(I0
tS'b'
tRp1106
(I1
(I3
tg12
I00
(lp1107
g70
ag14
aF0.28437499999999999
atbF0.53846153846153844
tp1108
a(g8
(g9
(I0
tS'b'
tRp1109
(I1
(I3
tg12
I00
(lp1110
(I0
I2
I0
I0
I0
tp1111
ag512
aF0.16796875
atbF0.75
tp1112
a(g8
(g9
(I0
tS'b'
tRp1113
(I1
(I3
tg12
I00
(lp1114
g544
a(I2
I1
I1
I2
I0
tp1115
aF0.048242187499999978
atbF0.4838709677419355
tp1116
a(g8
(g9
(I0
tS'b'
tRp1117
(I1
(I3
tg12
I00
(lp1118
g1005
a(I2
I0
I2
I2
I0
tp1119
aF0.45546874999999998
atbF0.5714285714285714
tp1120
a(g8
(g9
(I0
tS'b'
tRp1121
(I1
(I3
tg12
I00
(lp1122
g161
a(I0
I1
I1
I1
I1
tp1123
aF0.14374999999999999
atbF0.71999999999999997
tp1124
a(g8
(g9
(I0
tS'b'
tRp1125
(I1
(I3
tg12
I00
(lp1126
g248
ag1115
aF0.5107421875
atbF0.48148148148148145
tp1127
a(g8
(g9
(I0
tS'b'
tRp1128
(I1
(I3
tg12
I00
(lp1129
g280
a(I1
I2
I0
I1
I1
tp1130
aF0.11250000000000004
atbF0.51851851851851849
tp1131
a(g8
(g9
(I0
tS'b'
tRp1132
(I1
(I3
tg12
I00
(lp1133
(I0
I0
I1
I0
I2
tp1134
ag203
aF0.22213541666666667
atbF0.42857142857142855
tp1135
a(g8
(g9
(I0
tS'b'
tRp1136
(I1
(I3
tg12
I00
(lp1137
g984
ag1081
aF0.33085937499999996
atbF0.7142857142857143
tp1138
a(g8
(g9
(I0
tS'b'
tRp1139
(I1
(I3
tg12
I00
(lp1140
(I0
I0
I1
I1
I2
tp1141
ag908
aF0.08229166666666668
atbF0.55172413793103448
tp1142
a(g8
(g9
(I0
tS'b'
tRp1143
(I1
(I3
tg12
I00
(lp1144
g117
ag328
aF0.28125
atbF0.33333333333333331
tp1145
a(g8
(g9
(I0
tS'b'
tRp1146
(I1
(I3
tg12
I00
(lp1147
g291
ag215
aF0.034765624999999911
atbF0.59259259259259256
tp1148
a(g8
(g9
(I0
tS'b'
tRp1149
(I1
(I3
tg12
I00
(lp1150
g1055
ag923
aF0.26197916666666671
atbF0.6071428571428571
tp1151
a(g8
(g9
(I0
tS'b'
tRp1152
(I1
(I3
tg12
I00
(lp1153
g275
ag378
aF0.19374999999999998
atbF0.48275862068965519
tp1154
a(g8
(g9
(I0
tS'b'
tRp1155
(I1
(I3
tg12
I00
(lp1156
(I0
I0
I2
I1
I1
tp1157
ag149
aF0.13749999999999996
atbF0.37931034482758619
tp1158
a(g8
(g9
(I0
tS'b'
tRp1159
(I1
(I3
tg12
I00
(lp1160
(I1
I1
I2
I0
I0
tp1161
a(I2
I2
I0
I2
I0
tp1162
aF0.37109375
atbF0.69230769230769229
tp1163
a(g8
(g9
(I0
tS'b'
tRp1164
(I1
(I3
tg12
I00
(lp1165
g435
ag876
aF0.040755208333333348
atbF0.72727272727272729
tp1166
a(g8
(g9
(I0
tS'b'
tRp1167
(I1
(I3
tg12
I00
(lp1168
(I2
I0
I2
I0
I1
tp1169
ag290
aF0.0031249999999999334
atbF0.48148148148148145
tp1170
a(g8
(g9
(I0
tS'b'
tRp1171
(I1
(I3
tg12
I00
(lp1172
g544
ag59
aF0.0390625
atbF0.32000000000000001
tp1173
a(g8
(g9
(I0
tS'b'
tRp1174
(I1
(I3
tg12
I00
(lp1175
(I0
I2
I0
I2
I2
tp1176
ag440
aF0.024999999999999967
atbF0.45161290322580644
tp1177
a(g8
(g9
(I0
tS'b'
tRp1178
(I1
(I3
tg12
I00
(lp1179
(I0
I1
I1
I2
I1
tp1180
ag447
aF0.52499999999999991
atbF0.20689655172413793
tp1181
a(g8
(g9
(I0
tS'b'
tRp1182
(I1
(I3
tg12
I00
(lp1183
g1134
ag76
aF0.24635416666666668
atbF0.34482758620689657
tp1184
a(g8
(g9
(I0
tS'b'
tRp1185
(I1
(I3
tg12
I00
(lp1186
(I1
I1
I1
I0
I0
tp1187
ag988
aF0.38020833333333337
atbF0.16666666666666666
tp1188
a(g8
(g9
(I0
tS'b'
tRp1189
(I1
(I3
tg12
I00
(lp1190
g549
a(I2
I1
I1
I1
I0
tp1191
aF0.34003906249999999
atbF0.58064516129032262
tp1192
a(g8
(g9
(I0
tS'b'
tRp1193
(I1
(I3
tg12
I00
(lp1194
g82
ag65
aF0.23515624999999996
atbF0.51724137931034486
tp1195
a(g8
(g9
(I0
tS'b'
tRp1196
(I1
(I3
tg12
I00
(lp1197
g992
ag270
aF0.59218750000000009
atbF0.44444444444444442
tp1198
a(g8
(g9
(I0
tS'b'
tRp1199
(I1
(I3
tg12
I00
(lp1200
g94
ag430
aF0.32500000000000001
atbF0.29629629629629628
tp1201
a(g8
(g9
(I0
tS'b'
tRp1202
(I1
(I3
tg12
I00
(lp1203
g23
ag384
aF0.38229166666666664
atbF0.78260869565217395
tp1204
a(g8
(g9
(I0
tS'b'
tRp1205
(I1
(I3
tg12
I00
(lp1206
g984
ag150
aF0.34583333333333333
atbF0.44827586206896552
tp1207
a(g8
(g9
(I0
tS'b'
tRp1208
(I1
(I3
tg12
I00
(lp1209
g203
ag883
aF0.00390625
atbF0.48148148148148145
tp1210
a(g8
(g9
(I0
tS'b'
tRp1211
(I1
(I3
tg12
I00
(lp1212
g254
ag1161
aF0.36354166666666665
atbF0.59259259259259256
tp1213
a(g8
(g9
(I0
tS'b'
tRp1214
(I1
(I3
tg12
I00
(lp1215
g129
ag904
aF0.0085937499999999556
atbF0.52000000000000002
tp1216
a(g8
(g9
(I0
tS'b'
tRp1217
(I1
(I3
tg12
I00
(lp1218
(I1
I2
I2
I1
I0
tp1219
ag285
aF0.28125
atbF0.57692307692307687
tp1220
asg552
(lp1221
(g862
F1
tp1222
a(g865
F1
tp1223
a(g869
F0.40000000000000002
tp1224
a(g874
F0.68571428571428572
tp1225
a(g878
F1
tp1226
a(g881
F0
tp1227
a(g885
F0
tp1228
a(g889
F0.11428571428571428
tp1229
a(g892
F1
tp1230
a(g896
F1
tp1231
a(g899
F0
tp1232
a(g902
F1
tp1233
a(g906
F0.54285714285714282
tp1234
a(g910
F0
tp1235
a(g915
F0
tp1236
a(g918
F0.74285714285714288
tp1237
a(g921
F1
tp1238
a(g926
F0.45714285714285713
tp1239
a(g929
F1
tp1240
a(g932
F0
tp1241
a(g937
F0.25714285714285712
tp1242
a(g941
F1
tp1243
a(g945
F0.51428571428571423
tp1244
a(g948
F1
tp1245
a(g951
F1
tp1246
a(g954
F0
tp1247
a(g957
F1
tp1248
a(g960
F1
tp1249
a(g964
F1
tp1250
a(g968
F0.42857142857142855
tp1251
a(g971
F1
tp1252
a(g975
F0
tp1253
a(g978
F1
tp1254
a(g982
F0.37142857142857144
tp1255
a(g986
F0.54285714285714282
tp1256
a(g990
F1
tp1257
a(g994
F1
tp1258
a(g998
F1
tp1259
a(g1002
F0.48571428571428571
tp1260
a(g1007
F0.59999999999999998
tp1261
a(g1010
F0
tp1262
a(g1013
F1
tp1263
a(g1017
F0.45714285714285713
tp1264
a(g1021
F1
tp1265
a(g1025
F1
tp1266
a(g1028
F1
tp1267
a(g1031
F0
tp1268
a(g1035
F1
tp1269
a(g1039
F0
tp1270
a(g1043
F0.74285714285714288
tp1271
a(g1047
F1
tp1272
a(g1050
F1
tp1273
a(g1053
F1
tp1274
a(g1058
F0
tp1275
a(g1061
F1
tp1276
a(g1064
F0.5714285714285714
tp1277
a(g1069
F1
tp1278
a(g1072
F1
tp1279
a(g1075
F0.42857142857142855
tp1280
a(g1078
F1
tp1281
a(g1083
F1
tp1282
a(g1086
F1
tp1283
a(g1089
F0.22857142857142856
tp1284
a(g1093
F0
tp1285
a(g1096
F0
tp1286
a(g1099
F0.65714285714285714
tp1287
a(g1102
F1
tp1288
a(g1106
F1
tp1289
a(g1109
F1
tp1290
a(g1113
F1
tp1291
a(g1117
F1
tp1292
a(g1121
F0.8571428571428571
tp1293
a(g1125
F1
tp1294
a(g1128
F0.54285714285714282
tp1295
a(g1132
F0.45714285714285713
tp1296
a(g1136
F1
tp1297
a(g1139
F1
tp1298
a(g1143
F0
tp1299
a(g1146
F1
tp1300
a(g1149
F1
tp1301
a(g1152
F0
tp1302
a(g1155
F0
tp1303
a(g1159
F0.34285714285714286
tp1304
a(g1164
F1
tp1305
a(g1167
F1
tp1306
a(g1171
F1
tp1307
a(g1174
F1
tp1308
a(g1178
F0
tp1309
a(g1182
F0.22857142857142856
tp1310
a(g1185
F0.20000000000000001
tp1311
a(g1189
F1
tp1312
a(g1193
F1
tp1313
a(g1196
F1
tp1314
a(g1199
F0
tp1315
a(g1202
F1
tp1316
a(g1205
F1
tp1317
a(g1208
F0
tp1318
a(g1211
F1
tp1319
a(g1214
F0
tp1320
a(g1217
F1
tp1321
assg654
(dp1322
g6
(lp1323
(g862
F0.59999999999999998
tp1324
a(g865
F0.38095238095238093
tp1325
a(g869
F0.52380952380952384
tp1326
a(g874
F0.42105263157894735
tp1327
a(g878
F0.58823529411764708
tp1328
a(g881
F0.5
tp1329
a(g885
F0.44444444444444442
tp1330
a(g889
F0.59999999999999998
tp1331
a(g892
F0.45454545454545453
tp1332
a(g896
F0.63636363636363635
tp1333
a(g899
F0.47058823529411764
tp1334
a(g902
F0.61904761904761907
tp1335
a(g906
F0.5
tp1336
a(g910
F0.51851851851851849
tp1337
a(g915
F0.63636363636363635
tp1338
a(g918
F0.55000000000000004
tp1339
a(g921
F0.23809523809523808
tp1340
a(g926
F0.65217391304347827
tp1341
a(g929
F0.72727272727272729
tp1342
a(g932
F0.5
tp1343
a(g937
F0.34999999999999998
tp1344
a(g941
F0.54545454545454541
tp1345
a(g945
F0.54545454545454541
tp1346
a(g948
F0.38095238095238093
tp1347
a(g951
F0.61904761904761907
tp1348
a(g954
F0.5714285714285714
tp1349
a(g957
F0.42105263157894735
tp1350
a(g960
F0.38095238095238093
tp1351
a(g964
F0.54545454545454541
tp1352
a(g968
F0.45454545454545453
tp1353
a(g971
F0.52631578947368418
tp1354
a(g975
F0.28000000000000003
tp1355
a(g978
F0.55000000000000004
tp1356
a(g982
F0.5
tp1357
a(g986
F0.5714285714285714
tp1358
a(g990
F0.36363636363636365
tp1359
a(g994
F0.625
tp1360
a(g998
F0.45833333333333331
tp1361
a(g1002
F0.43478260869565216
tp1362
a(g1007
F0.44
tp1363
a(g1010
F0.56000000000000005
tp1364
a(g1013
F0.31578947368421051
tp1365
a(g1017
F0.31818181818181818
tp1366
a(g1021
F0.38095238095238093
tp1367
a(g1025
F0.64000000000000001
tp1368
a(g1028
F0.52000000000000002
tp1369
a(g1031
F0.42105263157894735
tp1370
a(g1035
F0.25
tp1371
a(g1039
F0.52000000000000002
tp1372
a(g1043
F0.52631578947368418
tp1373
a(g1047
F0.70370370370370372
tp1374
a(g1050
F0.59999999999999998
tp1375
a(g1053
F0.56521739130434778
tp1376
a(g1058
F0.4375
tp1377
a(g1061
F0.6785714285714286
tp1378
a(g1064
F0.54166666666666663
tp1379
a(g1069
F0.47619047619047616
tp1380
a(g1072
F0.47826086956521741
tp1381
a(g1075
F0.45454545454545453
tp1382
a(g1078
F0.43478260869565216
tp1383
a(g1083
F0.65000000000000002
tp1384
a(g1086
F0.5
tp1385
a(g1089
F0.3125
tp1386
a(g1093
F0.68181818181818177
tp1387
a(g1096
F0.68421052631578949
tp1388
a(g1099
F0.65000000000000002
tp1389
a(g1102
F0.5625
tp1390
a(g1106
F0.5
tp1391
a(g1109
F0.65000000000000002
tp1392
a(g1113
F0.32000000000000001
tp1393
a(g1117
F0.38095238095238093
tp1394
a(g1121
F0.68181818181818177
tp1395
a(g1125
F0.45833333333333331
tp1396
a(g1128
F0.52380952380952384
tp1397
a(g1132
F0.54545454545454541
tp1398
a(g1136
F0.46153846153846156
tp1399
a(g1139
F0.5714285714285714
tp1400
a(g1143
F0.54545454545454541
tp1401
a(g1146
F0.55555555555555558
tp1402
a(g1149
F0.38095238095238093
tp1403
a(g1152
F0.57894736842105265
tp1404
a(g1155
F0.47619047619047616
tp1405
a(g1159
F0.42857142857142855
tp1406
a(g1164
F0.33333333333333331
tp1407
a(g1167
F0.51851851851851849
tp1408
a(g1171
F0.58333333333333337
tp1409
a(g1174
F0.66666666666666663
tp1410
a(g1178
F0.40000000000000002
tp1411
a(g1182
F0.5
tp1412
a(g1185
F0.45454545454545453
tp1413
a(g1189
F0.66666666666666663
tp1414
a(g1193
F0.31818181818181818
tp1415
a(g1196
F0.59999999999999998
tp1416
a(g1199
F0.47619047619047616
tp1417
a(g1202
F0.5
tp1418
a(g1205
F0.56521739130434778
tp1419
a(g1208
F0.57894736842105265
tp1420
a(g1211
F0.5
tp1421
a(g1214
F0.34782608695652173
tp1422
a(g1217
F0.52380952380952384
tp1423
asg552
(lp1424
(g862
F0.71999999999999997
tp1425
a(g865
F0.8125
tp1426
a(g869
F0.93333333333333335
tp1427
a(g874
F1
tp1428
a(g878
F0.90322580645161288
tp1429
a(g881
F1
tp1430
a(g885
F0.9375
tp1431
a(g889
F0.41935483870967744
tp1432
a(g892
F1
tp1433
a(g896
F0.9375
tp1434
a(g899
F0.34615384615384615
tp1435
a(g902
F1
tp1436
a(g906
F1
tp1437
a(g910
F0.20000000000000001
tp1438
a(g915
F0.59259259259259256
tp1439
a(g918
F1
tp1440
a(g921
F0.76000000000000001
tp1441
a(g926
F0.55172413793103448
tp1442
a(g929
F0.92307692307692313
tp1443
a(g932
F0.07407407407407407
tp1444
a(g937
F0.85185185185185186
tp1445
a(g941
F1
tp1446
a(g945
F1
tp1447
a(g948
F0.93548387096774188
tp1448
a(g951
F0.70833333333333337
tp1449
a(g954
F1
tp1450
a(g957
F0.35483870967741937
tp1451
a(g960
F0.90322580645161288
tp1452
a(g964
F0
tp1453
a(g968
F0.70370370370370372
tp1454
a(g971
F0.90322580645161288
tp1455
a(g975
F1
tp1456
a(g978
F1
tp1457
a(g982
F0.6785714285714286
tp1458
a(g986
F0.92000000000000004
tp1459
a(g990
F1
tp1460
a(g994
F1
tp1461
a(g998
F1
tp1462
a(g1002
F0.5714285714285714
tp1463
a(g1007
F0.70833333333333337
tp1464
a(g1010
F1
tp1465
a(g1013
F0.97142857142857142
tp1466
a(g1017
F0.64000000000000001
tp1467
a(g1021
F1
tp1468
a(g1025
F0.6333333333333333
tp1469
a(g1028
F0.96551724137931039
tp1470
a(g1031
F0.068965517241379309
tp1471
a(g1035
F0.92000000000000004
tp1472
a(g1039
F0.63636363636363635
tp1473
a(g1043
F0.32142857142857145
tp1474
a(g1047
F0.5357142857142857
tp1475
a(g1050
F0.9285714285714286
tp1476
a(g1053
F1
tp1477
a(g1058
F0.25
tp1478
a(g1061
F0.68965517241379315
tp1479
a(g1064
F0.5
tp1480
a(g1069
F0.96153846153846156
tp1481
a(g1072
F0.72413793103448276
tp1482
a(g1075
F0.92000000000000004
tp1483
a(g1078
F1
tp1484
a(g1083
F0.70370370370370372
tp1485
a(g1086
F1
tp1486
a(g1089
F0.375
tp1487
a(g1093
F0.15384615384615385
tp1488
a(g1096
F0.19230769230769232
tp1489
a(g1099
F0.5
tp1490
a(g1102
F0.86363636363636365
tp1491
a(g1106
F1
tp1492
a(g1109
F1
tp1493
a(g1113
F0.22222222222222221
tp1494
a(g1117
F0.96551724137931039
tp1495
a(g1121
F0.69999999999999996
tp1496
a(g1125
F0.967741935483871
tp1497
a(g1128
F0.78260869565217395
tp1498
a(g1132
F0.83999999999999997
tp1499
a(g1136
F0.51851851851851849
tp1500
a(g1139
F0.66666666666666663
tp1501
a(g1143
F0.22222222222222221
tp1502
a(g1146
F0.96296296296296291
tp1503
a(g1149
F1
tp1504
a(g1152
F1
tp1505
a(g1155
F0.7407407407407407
tp1506
a(g1159
F0.45454545454545453
tp1507
a(g1164
F1
tp1508
a(g1167
F0.90322580645161288
tp1509
a(g1171
F1
tp1510
a(g1174
F0.56000000000000005
tp1511
a(g1178
F1
tp1512
a(g1182
F1
tp1513
a(g1185
F0.56521739130434778
tp1514
a(g1189
F0.53125
tp1515
a(g1193
F0.73333333333333328
tp1516
a(g1196
F1
tp1517
a(g1199
F0.35714285714285715
tp1518
a(g1202
F0.875
tp1519
a(g1205
F0.96666666666666667
tp1520
a(g1208
F0.56000000000000005
tp1521
a(g1211
F0.83870967741935487
tp1522
a(g1214
F1
tp1523
a(g1217
F1
tp1524
asssS'RBP'
p1525
(dp1526
g4
(dp1527
g6
(lp1528
(g8
(g9
(I0
tS'b'
tRp1529
(I1
(I3
tg12
I00
(lp1530
(I0
I1
I2
I2
I2
tp1531
ag389
aF0.27807999999999999
atbF0.65517241379310343
tp1532
a(g8
(g9
(I0
tS'b'
tRp1533
(I1
(I3
tg12
I00
(lp1534
g339
ag174
aF0.61471999999999993
atbF0.57692307692307687
tp1535
a(g8
(g9
(I0
tS'b'
tRp1536
(I1
(I3
tg12
I00
(lp1537
g1161
ag410
aF0.35872000000000004
atbF0.29629629629629628
tp1538
a(g8
(g9
(I0
tS'b'
tRp1539
(I1
(I3
tg12
I00
(lp1540
g53
ag872
aF0.38624000000000014
atbF0.59999999999999998
tp1541
a(g8
(g9
(I0
tS'b'
tRp1542
(I1
(I3
tg12
I00
(lp1543
g498
a(I2
I0
I2
I2
I2
tp1544
aF0.73792000000000002
atbF0.65384615384615385
tp1545
a(g8
(g9
(I0
tS'b'
tRp1546
(I1
(I3
tg12
I00
(lp1547
g23
ag984
aF0.24991999999999992
atbF0.45161290322580644
tp1548
a(g8
(g9
(I0
tS'b'
tRp1549
(I1
(I3
tg12
I00
(lp1550
(I0
I1
I0
I0
I2
tp1551
ag943
aF0.70848
atbF0.33333333333333331
tp1552
a(g8
(g9
(I0
tS'b'
tRp1553
(I1
(I3
tg12
I00
(lp1554
g966
a(I1
I1
I2
I1
I0
tp1555
aF0.23647999999999991
atbF0.36363636363636365
tp1556
a(g8
(g9
(I0
tS'b'
tRp1557
(I1
(I3
tg12
I00
(lp1558
g1041
ag935
aF0.37664000000000009
atbF0.48275862068965519
tp1559
a(g8
(g9
(I0
tS'b'
tRp1560
(I1
(I3
tg12
I00
(lp1561
(I1
I1
I0
I0
I0
tp1562
a(I1
I2
I1
I0
I2
tp1563
aF0.45183999999999996
atbF0.55555555555555558
tp1564
a(g8
(g9
(I0
tS'b'
tRp1565
(I1
(I3
tg12
I00
(lp1566
(I0
I0
I1
I2
I1
tp1567
ag1219
aF0.46367999999999987
atbF0.53333333333333333
tp1568
a(g8
(g9
(I0
tS'b'
tRp1569
(I1
(I3
tg12
I00
(lp1570
g466
ag887
aF0.65599999999999992
atbF0.53333333333333333
tp1571
a(g8
(g9
(I0
tS'b'
tRp1572
(I1
(I3
tg12
I00
(lp1573
g65
ag129
aF0.19999999999999996
atbF0.5161290322580645
tp1574
a(g8
(g9
(I0
tS'b'
tRp1575
(I1
(I3
tg12
I00
(lp1576
g327
ag1004
aF0.11903999999999998
atbF0.5357142857142857
tp1577
a(g8
(g9
(I0
tS'b'
tRp1578
(I1
(I3
tg12
I00
(lp1579
g208
ag482
aF0.11391999999999991
atbF0.45161290322580644
tp1580
a(g8
(g9
(I0
tS'b'
tRp1581
(I1
(I3
tg12
I00
(lp1582
g105
a(I0
I2
I1
I2
I0
tp1583
aF0.076799999999999979
atbF0.25925925925925924
tp1584
a(g8
(g9
(I0
tS'b'
tRp1585
(I1
(I3
tg12
I00
(lp1586
g1157
ag424
aF0.38047999999999987
atbF0.5
tp1587
a(g8
(g9
(I0
tS'b'
tRp1588
(I1
(I3
tg12
I00
(lp1589
g167
ag333
aF0.16
atbF0.68965517241379315
tp1590
a(g8
(g9
(I0
tS'b'
tRp1591
(I1
(I3
tg12
I00
(lp1592
(I1
I0
I0
I0
I1
tp1593
ag384
aF0.28191999999999995
atbF0.5161290322580645
tp1594
a(g8
(g9
(I0
tS'b'
tRp1595
(I1
(I3
tg12
I00
(lp1596
g924
a(I2
I1
I0
I1
I1
tp1597
aF0.0044799999999999285
atbF0.44
tp1598
a(g8
(g9
(I0
tS'b'
tRp1599
(I1
(I3
tg12
I00
(lp1600
g333
ag168
aF0.095999999999999974
atbF0.52000000000000002
tp1601
a(g8
(g9
(I0
tS'b'
tRp1602
(I1
(I3
tg12
I00
(lp1603
g275
ag296
aF0.83264000000000005
atbF0.39393939393939392
tp1604
a(g8
(g9
(I0
tS'b'
tRp1605
(I1
(I3
tg12
I00
(lp1606
g275
ag996
aF0.7647999999999997
atbF0.33333333333333331
tp1607
a(g8
(g9
(I0
tS'b'
tRp1608
(I1
(I3
tg12
I00
(lp1609
g58
ag973
aF0.12959999999999994
atbF0.59999999999999998
tp1610
a(g8
(g9
(I0
tS'b'
tRp1611
(I1
(I3
tg12
I00
(lp1612
g368
ag399
aF0.081919999999999993
atbF0.20000000000000001
tp1613
a(g8
(g9
(I0
tS'b'
tRp1614
(I1
(I3
tg12
I00
(lp1615
g939
ag1067
aF0.28608000000000011
atbF0.6071428571428571
tp1616
a(g8
(g9
(I0
tS'b'
tRp1617
(I1
(I3
tg12
I00
(lp1618
g1562
ag1091
aF0.29184000000000004
atbF0.40740740740740738
tp1619
a(g8
(g9
(I0
tS'b'
tRp1620
(I1
(I3
tg12
I00
(lp1621
g908
ag1583
aF0.192
atbF0.55555555555555558
tp1622
a(g8
(g9
(I0
tS'b'
tRp1623
(I1
(I3
tg12
I00
(lp1624
g82
ag359
aF0.45760000000000012
atbF0.58333333333333337
tp1625
a(g8
(g9
(I0
tS'b'
tRp1626
(I1
(I3
tg12
I00
(lp1627
g316
ag322
aF0.55455999999999994
atbF0.58064516129032262
tp1628
a(g8
(g9
(I0
tS'b'
tRp1629
(I1
(I3
tg12
I00
(lp1630
g22
ag348
aF0.13791999999999999
atbF0.76666666666666672
tp1631
a(g8
(g9
(I0
tS'b'
tRp1632
(I1
(I3
tg12
I00
(lp1633
g973
ag457
aF0.18432000000000004
atbF0.62068965517241381
tp1634
a(g8
(g9
(I0
tS'b'
tRp1635
(I1
(I3
tg12
I00
(lp1636
g161
ag77
aF0.56991999999999987
atbF0.58620689655172409
tp1637
a(g8
(g9
(I0
tS'b'
tRp1638
(I1
(I3
tg12
I00
(lp1639
g966
ag1104
aF0.078079999999999927
atbF0.33333333333333331
tp1640
a(g8
(g9
(I0
tS'b'
tRp1641
(I1
(I3
tg12
I00
(lp1642
g70
ag111
aF0.33440000000000003
atbF0.51724137931034486
tp1643
a(g8
(g9
(I0
tS'b'
tRp1644
(I1
(I3
tg12
I00
(lp1645
g1041
ag71
aF0.32224000000000008
atbF0.5714285714285714
tp1646
a(g8
(g9
(I0
tS'b'
tRp1647
(I1
(I3
tg12
I00
(lp1648
g310
ag512
aF0.036159999999999859
atbF0.51724137931034486
tp1649
a(g8
(g9
(I0
tS'b'
tRp1650
(I1
(I3
tg12
I00
(lp1651
g1567
ag410
aF0.55999999999999994
atbF0.54166666666666663
tp1652
a(g8
(g9
(I0
tS'b'
tRp1653
(I1
(I3
tg12
I00
(lp1654
g128
ag1045
aF0.066240000000000077
atbF0.70967741935483875
tp1655
a(g8
(g9
(I0
tS'b'
tRp1656
(I1
(I3
tg12
I00
(lp1657
(I0
I2
I1
I1
I0
tp1658
a(I1
I2
I2
I2
I2
tp1659
aF0.59423999999999999
atbF0.43333333333333335
tp1660
a(g8
(g9
(I0
tS'b'
tRp1661
(I1
(I3
tg12
I00
(lp1662
g58
ag144
aF0.09760000000000002
atbF0.73913043478260865
tp1663
a(g8
(g9
(I0
tS'b'
tRp1664
(I1
(I3
tg12
I00
(lp1665
g384
ag1019
aF0.376
atbF0.60869565217391308
tp1666
a(g8
(g9
(I0
tS'b'
tRp1667
(I1
(I3
tg12
I00
(lp1668
(I0
I1
I0
I2
I0
tp1669
ag1583
aF0.28799999999999998
atbF0.46666666666666667
tp1670
a(g8
(g9
(I0
tS'b'
tRp1671
(I1
(I3
tg12
I00
(lp1672
g1593
ag1562
aF0.078079999999999983
atbF0.57692307692307687
tp1673
a(g8
(g9
(I0
tS'b'
tRp1674
(I1
(I3
tg12
I00
(lp1675
g185
ag924
aF0.18559999999999999
atbF0.37931034482758619
tp1676
a(g8
(g9
(I0
tS'b'
tRp1677
(I1
(I3
tg12
I00
(lp1678
(I1
I1
I0
I0
I2
tp1679
ag111
aF0.040959999999999996
atbF0.53333333333333333
tp1680
a(g8
(g9
(I0
tS'b'
tRp1681
(I1
(I3
tg12
I00
(lp1682
g1111
ag512
aF0.30239999999999989
atbF0.34482758620689657
tp1683
a(g8
(g9
(I0
tS'b'
tRp1684
(I1
(I3
tg12
I00
(lp1685
g111
ag447
aF0.37791999999999992
atbF0.55555555555555558
tp1686
a(g8
(g9
(I0
tS'b'
tRp1687
(I1
(I3
tg12
I00
(lp1688
g531
ag290
aF0.48831999999999981
atbF0.40740740740740738
tp1689
a(g8
(g9
(I0
tS'b'
tRp1690
(I1
(I3
tg12
I00
(lp1691
g192
ag883
aF0.078080000000000038
atbF0.42307692307692307
tp1692
a(g8
(g9
(I0
tS'b'
tRp1693
(I1
(I3
tg12
I00
(lp1694
g531
ag410
aF0.61631999999999998
atbF0.40625
tp1695
a(g8
(g9
(I0
tS'b'
tRp1696
(I1
(I3
tg12
I00
(lp1697
(I0
I0
I0
I0
I1
tp1698
ag473
aF0.38431999999999988
atbF0.5
tp1699
a(g8
(g9
(I0
tS'b'
tRp1700
(I1
(I3
tg12
I00
(lp1701
g1005
ag384
aF0.051519999999999899
atbF0.48148148148148145
tp1702
a(g8
(g9
(I0
tS'b'
tRp1703
(I1
(I3
tg12
I00
(lp1704
g111
ag373
aF0.22143999999999997
atbF0.41379310344827586
tp1705
a(g8
(g9
(I0
tS'b'
tRp1706
(I1
(I3
tg12
I00
(lp1707
g1019
ag1659
aF0.20479999999999998
atbF0.13333333333333333
tp1708
a(g8
(g9
(I0
tS'b'
tRp1709
(I1
(I3
tg12
I00
(lp1710
g242
ag410
aF0.16799999999999993
atbF0.35999999999999999
tp1711
a(g8
(g9
(I0
tS'b'
tRp1712
(I1
(I3
tg12
I00
(lp1713
g399
ag962
aF0.46751999999999988
atbF0.19230769230769232
tp1714
a(g8
(g9
(I0
tS'b'
tRp1715
(I1
(I3
tg12
I00
(lp1716
g488
ag129
aF0.22303999999999991
atbF0.68965517241379315
tp1717
a(g8
(g9
(I0
tS'b'
tRp1718
(I1
(I3
tg12
I00
(lp1719
(I1
I0
I1
I0
I1
tp1720
ag1544
aF0.61472000000000004
atbF0.34482758620689657
tp1721
a(g8
(g9
(I0
tS'b'
tRp1722
(I1
(I3
tg12
I00
(lp1723
(I0
I2
I2
I0
I1
tp1724
ag129
aF0.2259199999999999
atbF0.61538461538461542
tp1725
a(g8
(g9
(I0
tS'b'
tRp1726
(I1
(I3
tg12
I00
(lp1727
g872
ag296
aF0.072000000000000064
atbF0.68000000000000005
tp1728
a(g8
(g9
(I0
tS'b'
tRp1729
(I1
(I3
tg12
I00
(lp1730
g83
ag162
aF0.26399999999999979
atbF0.75
tp1731
a(g8
(g9
(I0
tS'b'
tRp1732
(I1
(I3
tg12
I00
(lp1733
g105
ag321
aF0.096319999999999961
atbF0.34482758620689657
tp1734
a(g8
(g9
(I0
tS'b'
tRp1735
(I1
(I3
tg12
I00
(lp1736
g368
ag168
aF0.19551999999999997
atbF0.68965517241379315
tp1737
a(g8
(g9
(I0
tS'b'
tRp1738
(I1
(I3
tg12
I00
(lp1739
g254
a(I1
I1
I1
I2
I1
tp1740
aF0.56479999999999997
atbF0.53846153846153844
tp1741
a(g8
(g9
(I0
tS'b'
tRp1742
(I1
(I3
tg12
I00
(lp1743
g191
ag156
aF0.83232000000000006
atbF0.40625
tp1744
a(g8
(g9
(I0
tS'b'
tRp1745
(I1
(I3
tg12
I00
(lp1746
g430
ag47
aF0.94463999999999992
atbF0.25
tp1747
a(g8
(g9
(I0
tS'b'
tRp1748
(I1
(I3
tg12
I00
(lp1749
g430
ag116
aF0.30271999999999999
atbF0.59999999999999998
tp1750
a(g8
(g9
(I0
tS'b'
tRp1751
(I1
(I3
tg12
I00
(lp1752
g1123
ag389
aF0.59039999999999981
atbF0.39285714285714285
tp1753
a(g8
(g9
(I0
tS'b'
tRp1754
(I1
(I3
tg12
I00
(lp1755
g1180
ag887
aF0.42559999999999987
atbF0.4642857142857143
tp1756
a(g8
(g9
(I0
tS'b'
tRp1757
(I1
(I3
tg12
I00
(lp1758
g111
ag389
aF0.49791999999999992
atbF0.13793103448275862
tp1759
a(g8
(g9
(I0
tS'b'
tRp1760
(I1
(I3
tg12
I00
(lp1761
g1176
ag1066
aF0.14367999999999981
atbF0.45833333333333331
tp1762
a(g8
(g9
(I0
tS'b'
tRp1763
(I1
(I3
tg12
I00
(lp1764
g1669
ag310
aF0.22144000000000003
atbF0.42307692307692307
tp1765
a(g8
(g9
(I0
tS'b'
tRp1766
(I1
(I3
tg12
I00
(lp1767
g1583
ag493
aF0.2694399999999999
atbF0.81481481481481477
tp1768
a(g8
(g9
(I0
tS'b'
tRp1769
(I1
(I3
tg12
I00
(lp1770
g1130
a(I2
I0
I1
I1
I1
tp1771
aF0.0080000000000000071
atbF0.43478260869565216
tp1772
a(g8
(g9
(I0
tS'b'
tRp1773
(I1
(I3
tg12
I00
(lp1774
g316
ag242
aF0.38047999999999998
atbF0.36363636363636365
tp1775
a(g8
(g9
(I0
tS'b'
tRp1776
(I1
(I3
tg12
I00
(lp1777
g1720
ag144
aF0.24607999999999997
atbF0.59999999999999998
tp1778
a(g8
(g9
(I0
tS'b'
tRp1779
(I1
(I3
tg12
I00
(lp1780
g1658
ag1119
aF0.31040000000000001
atbF0.38461538461538464
tp1781
a(g8
(g9
(I0
tS'b'
tRp1782
(I1
(I3
tg12
I00
(lp1783
g275
ag156
aF0.90432000000000001
atbF0.5
tp1784
a(g8
(g9
(I0
tS'b'
tRp1785
(I1
(I3
tg12
I00
(lp1786
(I0
I2
I1
I0
I0
tp1787
ag1023
aF0.48671999999999993
atbF0.68000000000000005
tp1788
a(g8
(g9
(I0
tS'b'
tRp1789
(I1
(I3
tg12
I00
(lp1790
g179
ag1531
aF0.21599999999999997
atbF0.61290322580645162
tp1791
a(g8
(g9
(I0
tS'b'
tRp1792
(I1
(I3
tg12
I00
(lp1793
g383
ag354
aF0.082880000000000065
atbF0.39285714285714285
tp1794
a(g8
(g9
(I0
tS'b'
tRp1795
(I1
(I3
tg12
I00
(lp1796
g53
ag150
aF0.29952000000000001
atbF0.5357142857142857
tp1797
a(g8
(g9
(I0
tS'b'
tRp1798
(I1
(I3
tg12
I00
(lp1799
g368
ag887
aF0.69791999999999987
atbF0.61538461538461542
tp1800
a(g8
(g9
(I0
tS'b'
tRp1801
(I1
(I3
tg12
I00
(lp1802
g53
ag242
aF0.17632000000000014
atbF0.40000000000000002
tp1803
a(g8
(g9
(I0
tS'b'
tRp1804
(I1
(I3
tg12
I00
(lp1805
g339
ag872
aF0.44672000000000001
atbF0.7407407407407407
tp1806
a(g8
(g9
(I0
tS'b'
tRp1807
(I1
(I3
tg12
I00
(lp1808
g29
ag904
aF0.28320000000000001
atbF0.55172413793103448
tp1809
a(g8
(g9
(I0
tS'b'
tRp1810
(I1
(I3
tg12
I00
(lp1811
g894
ag913
aF0.081920000000000215
atbF0.23076923076923078
tp1812
a(g8
(g9
(I0
tS'b'
tRp1813
(I1
(I3
tg12
I00
(lp1814
g1562
ag242
aF0.44672000000000006
atbF0.46153846153846156
tp1815
a(g8
(g9
(I0
tS'b'
tRp1816
(I1
(I3
tg12
I00
(lp1817
g1056
ag867
aF0.084800000000000098
atbF0.6785714285714286
tp1818
a(g8
(g9
(I0
tS'b'
tRp1819
(I1
(I3
tg12
I00
(lp1820
g82
ag549
aF0.10144000000000009
atbF0.42857142857142855
tp1821
a(g8
(g9
(I0
tS'b'
tRp1822
(I1
(I3
tg12
I00
(lp1823
g1055
ag1169
aF0.60991999999999991
atbF0.56666666666666665
tp1824
a(g8
(g9
(I0
tS'b'
tRp1825
(I1
(I3
tg12
I00
(lp1826
g883
ag894
aF0.60991999999999968
atbF0.37037037037037035
tp1827
a(g8
(g9
(I0
tS'b'
tRp1828
(I1
(I3
tg12
I00
(lp1829
(I1
I0
I0
I2
I0
tp1830
ag1724
aF0.25312000000000001
atbF0.61538461538461542
tp1831
a(g8
(g9
(I0
tS'b'
tRp1832
(I1
(I3
tg12
I00
(lp1833
g1187
ag71
aF0.35424
atbF0.46153846153846156
tp1834
a(g8
(g9
(I0
tS'b'
tRp1835
(I1
(I3
tg12
I00
(lp1836
g966
ag359
aF0.49408000000000007
atbF0.54838709677419351
tp1837
a(g8
(g9
(I0
tS'b'
tRp1838
(I1
(I3
tg12
I00
(lp1839
g155
ag894
aF0.15007999999999988
atbF0.47999999999999998
tp1840
a(g8
(g9
(I0
tS'b'
tRp1841
(I1
(I3
tg12
I00
(lp1842
g327
ag876
aF0.78143999999999991
atbF0.28000000000000003
tp1843
a(g8
(g9
(I0
tS'b'
tRp1844
(I1
(I3
tg12
I00
(lp1845
g14
ag1544
aF0.39232
atbF0.52173913043478259
tp1846
a(g8
(g9
(I0
tS'b'
tRp1847
(I1
(I3
tg12
I00
(lp1848
g1019
ag322
aF0.040959999999999996
atbF0.61290322580645162
tp1849
asg552
(lp1850
(g1529
F1
tp1851
a(g1533
F0.54285714285714282
tp1852
a(g1536
F1
tp1853
a(g1539
F0
tp1854
a(g1542
F1
tp1855
a(g1546
F0.82857142857142863
tp1856
a(g1549
F1
tp1857
a(g1553
F0.42857142857142855
tp1858
a(g1557
F1
tp1859
a(g1560
F0.51428571428571423
tp1860
a(g1565
F1
tp1861
a(g1569
F1
tp1862
a(g1572
F1
tp1863
a(g1575
F0.51428571428571423
tp1864
a(g1578
F0
tp1865
a(g1581
F0
tp1866
a(g1585
F0.74285714285714288
tp1867
a(g1588
F0.51428571428571423
tp1868
a(g1591
F1
tp1869
a(g1595
F0.59999999999999998
tp1870
a(g1599
F0
tp1871
a(g1602
F1
tp1872
a(g1605
F0
tp1873
a(g1608
F1
tp1874
a(g1611
F0.23529411764705882
tp1875
a(g1614
F1
tp1876
a(g1617
F0.17142857142857143
tp1877
a(g1620
F1
tp1878
a(g1623
F0.37142857142857144
tp1879
a(g1626
F1
tp1880
a(g1629
F1
tp1881
a(g1632
F1
tp1882
a(g1635
F1
tp1883
a(g1638
F1
tp1884
a(g1641
F1
tp1885
a(g1644
F1
tp1886
a(g1647
F1
tp1887
a(g1650
F1
tp1888
a(g1653
F1
tp1889
a(g1656
F0.48571428571428571
tp1890
a(g1661
F1
tp1891
a(g1664
F1
tp1892
a(g1667
F0.48571428571428571
tp1893
a(g1671
F0.77419354838709675
tp1894
a(g1674
F0
tp1895
a(g1677
F0.8571428571428571
tp1896
a(g1681
F0
tp1897
a(g1684
F0.48571428571428571
tp1898
a(g1687
F1
tp1899
a(g1690
F0
tp1900
a(g1693
F1
tp1901
a(g1696
F0.7142857142857143
tp1902
a(g1700
F1
tp1903
a(g1703
F0.54285714285714282
tp1904
a(g1706
F0
tp1905
a(g1709
F1
tp1906
a(g1712
F0.057142857142857141
tp1907
a(g1715
F1
tp1908
a(g1718
F0.51428571428571423
tp1909
a(g1722
F1
tp1910
a(g1726
F1
tp1911
a(g1729
F1
tp1912
a(g1732
F0
tp1913
a(g1735
F0.59999999999999998
tp1914
a(g1738
F0.8571428571428571
tp1915
a(g1742
F0.5714285714285714
tp1916
a(g1745
F0
tp1917
a(g1748
F1
tp1918
a(g1751
F0.40000000000000002
tp1919
a(g1754
F1
tp1920
a(g1757
F0
tp1921
a(g1760
F0
tp1922
a(g1763
F0
tp1923
a(g1766
F1
tp1924
a(g1769
F0
tp1925
a(g1773
F1
tp1926
a(g1776
F1
tp1927
a(g1779
F0.42857142857142855
tp1928
a(g1782
F1
tp1929
a(g1785
F1
tp1930
a(g1789
F0.82857142857142863
tp1931
a(g1792
F0.59999999999999998
tp1932
a(g1795
F0
tp1933
a(g1798
F1
tp1934
a(g1801
F1
tp1935
a(g1804
F0.20000000000000001
tp1936
a(g1807
F1
tp1937
a(g1810
F0
tp1938
a(g1813
F0.77142857142857146
tp1939
a(g1816
F0
tp1940
a(g1819
F0
tp1941
a(g1822
F1
tp1942
a(g1825
F0
tp1943
a(g1828
F1
tp1944
a(g1832
F0.40000000000000002
tp1945
a(g1835
F1
tp1946
a(g1838
F0.5714285714285714
tp1947
a(g1841
F1
tp1948
a(g1844
F0
tp1949
a(g1847
F0.45714285714285713
tp1950
assg654
(dp1951
g6
(lp1952
(g1529
F0.59999999999999998
tp1953
a(g1533
F0.45454545454545453
tp1954
a(g1536
F0.36363636363636365
tp1955
a(g1539
F0.5714285714285714
tp1956
a(g1542
F0.43478260869565216
tp1957
a(g1546
F0.70588235294117652
tp1958
a(g1549
F0.46153846153846156
tp1959
a(g1553
F0.31578947368421051
tp1960
a(g1557
F0.40909090909090912
tp1961
a(g1560
F0.5714285714285714
tp1962
a(g1565
F0.59999999999999998
tp1963
a(g1569
F0.39130434782608697
tp1964
a(g1572
F0.54545454545454541
tp1965
a(g1575
F0.2857142857142857
tp1966
a(g1578
F0.33333333333333331
tp1967
a(g1581
F0.54545454545454541
tp1968
a(g1585
F0.45454545454545453
tp1969
a(g1588
F0.375
tp1970
a(g1591
F0.42105263157894735
tp1971
a(g1595
F0.46153846153846156
tp1972
a(g1599
F0.63157894736842102
tp1973
a(g1602
F0.45000000000000001
tp1974
a(g1605
F0.47368421052631576
tp1975
a(g1608
F0.54545454545454541
tp1976
a(g1611
F0.47058823529411764
tp1977
a(g1614
F0.57692307692307687
tp1978
a(g1617
F0.7142857142857143
tp1979
a(g1620
F0.63636363636363635
tp1980
a(g1623
F0.47058823529411764
tp1981
a(g1626
F0.47619047619047616
tp1982
a(g1629
F0.71999999999999997
tp1983
a(g1632
F0.47826086956521741
tp1984
a(g1635
F0.42307692307692307
tp1985
a(g1638
F0.61111111111111116
tp1986
a(g1641
F0.5714285714285714
tp1987
a(g1644
F0.63636363636363635
tp1988
a(g1647
F0.36363636363636365
tp1989
a(g1650
F0.29411764705882354
tp1990
a(g1653
F0.47826086956521741
tp1991
a(g1656
F0.60869565217391308
tp1992
a(g1661
F0.45000000000000001
tp1993
a(g1664
F0.47999999999999998
tp1994
a(g1667
F0.39130434782608697
tp1995
a(g1671
F0.34999999999999998
tp1996
a(g1674
F0.57894736842105265
tp1997
a(g1677
F0.45454545454545453
tp1998
a(g1681
F0.52631578947368418
tp1999
a(g1684
F0.41666666666666669
tp2000
a(g1687
F0.55000000000000004
tp2001
a(g1690
F0.46666666666666667
tp2002
a(g1693
F0.34782608695652173
tp2003
a(g1696
F0.42105263157894735
tp2004
a(g1700
F0.34999999999999998
tp2005
a(g1703
F0.22727272727272727
tp2006
a(g1706
F0.65217391304347827
tp2007
a(g1709
F0.29411764705882354
tp2008
a(g1712
F0.36363636363636365
tp2009
a(g1715
F0.45833333333333331
tp2010
a(g1718
F0.35999999999999999
tp2011
a(g1722
F0.5
tp2012
a(g1726
F0.47619047619047616
tp2013
a(g1729
F0.38095238095238093
tp2014
a(g1732
F0.27777777777777779
tp2015
a(g1735
F0.61904761904761907
tp2016
a(g1738
F0.41666666666666669
tp2017
a(g1742
F0.5
tp2018
a(g1745
F0.5714285714285714
tp2019
a(g1748
F0.3888888888888889
tp2020
a(g1751
F0.34999999999999998
tp2021
a(g1754
F0.33333333333333331
tp2022
a(g1757
F0.63636363636363635
tp2023
a(g1760
F0.5714285714285714
tp2024
a(g1763
F0.60869565217391308
tp2025
a(g1766
F0.38095238095238093
tp2026
a(g1769
F0.40909090909090912
tp2027
a(g1773
F0.42307692307692307
tp2028
a(g1776
F0.52631578947368418
tp2029
a(g1779
F0.69565217391304346
tp2030
a(g1782
F0.5
tp2031
a(g1785
F0.66666666666666663
tp2032
a(g1789
F0.54166666666666663
tp2033
a(g1792
F0.5
tp2034
a(g1795
F0.5714285714285714
tp2035
a(g1798
F0.42307692307692307
tp2036
a(g1801
F0.68181818181818177
tp2037
a(g1804
F0.42857142857142855
tp2038
a(g1807
F0.46153846153846156
tp2039
a(g1810
F0.47368421052631576
tp2040
a(g1813
F0.47999999999999998
tp2041
a(g1816
F0.41666666666666669
tp2042
a(g1819
F0.58333333333333337
tp2043
a(g1822
F0.60869565217391308
tp2044
a(g1825
F0.6470588235294118
tp2045
a(g1828
F0.45833333333333331
tp2046
a(g1832
F0.58823529411764708
tp2047
a(g1835
F0.61538461538461542
tp2048
a(g1838
F0.58333333333333337
tp2049
a(g1841
F0.63636363636363635
tp2050
a(g1844
F0.52380952380952384
tp2051
a(g1847
F0.2857142857142857
tp2052
asg552
(lp2053
(g1529
F0.75
tp2054
a(g1533
F0.87096774193548387
tp2055
a(g1536
F0.90625
tp2056
a(g1539
F0.70370370370370372
tp2057
a(g1542
F1
tp2058
a(g1546
F0.5161290322580645
tp2059
a(g1549
F1
tp2060
a(g1553
F0.16666666666666666
tp2061
a(g1557
F0.48275862068965519
tp2062
a(g1560
F0.54545454545454541
tp2063
a(g1565
F1
tp2064
a(g1569
F1
tp2065
a(g1572
F0.62068965517241381
tp2066
a(g1575
F0.76923076923076927
tp2067
a(g1578
F0.68181818181818177
tp2068
a(g1581
F0.058823529411764705
tp2069
a(g1585
F0.90000000000000002
tp2070
a(g1588
F0.93103448275862066
tp2071
a(g1591
F1
tp2072
a(g1595
F0.75
tp2073
a(g1599
F0.54166666666666663
tp2074
a(g1602
F1
tp2075
a(g1605
F1
tp2076
a(g1608
F0.967741935483871
tp2077
a(g1611
F0.5357142857142857
tp2078
a(g1614
F1
tp2079
a(g1617
F0.76000000000000001
tp2080
a(g1620
F1
tp2081
a(g1623
F1
tp2082
a(g1626
F0.84375
tp2083
a(g1629
F0.30303030303030304
tp2084
a(g1632
F0.25
tp2085
a(g1635
F1
tp2086
a(g1638
F0.8571428571428571
tp2087
a(g1641
F0.7931034482758621
tp2088
a(g1644
F0.1111111111111111
tp2089
a(g1647
F0.55555555555555558
tp2090
a(g1650
F1
tp2091
a(g1653
F0
tp2092
a(g1656
F0.7142857142857143
tp2093
a(g1661
F0.34782608695652173
tp2094
a(g1664
F0.17857142857142858
tp2095
a(g1667
F0.86206896551724133
tp2096
a(g1671
F0.6071428571428571
tp2097
a(g1674
F0.9642857142857143
tp2098
a(g1677
F0.34482758620689657
tp2099
a(g1681
F0.90000000000000002
tp2100
a(g1684
F0.63636363636363635
tp2101
a(g1687
F0.96551724137931039
tp2102
a(g1690
F0.76923076923076927
tp2103
a(g1693
F1
tp2104
a(g1696
F0.92592592592592593
tp2105
a(g1700
F0.625
tp2106
a(g1703
F0.66666666666666663
tp2107
a(g1706
F0.5
tp2108
a(g1709
F0.96153846153846156
tp2109
a(g1712
F0.5161290322580645
tp2110
a(g1715
F0.6785714285714286
tp2111
a(g1718
F0.68965517241379315
tp2112
a(g1722
F0.96666666666666667
tp2113
a(g1726
F0.60869565217391308
tp2114
a(g1729
F1
tp2115
a(g1732
F0.44827586206896552
tp2116
a(g1735
F0.68965517241379315
tp2117
a(g1738
F0.967741935483871
tp2118
a(g1742
F1
tp2119
a(g1745
F0.33333333333333331
tp2120
a(g1748
F0.46666666666666667
tp2121
a(g1751
F0.90909090909090906
tp2122
a(g1754
F0.9642857142857143
tp2123
a(g1757
F0.8666666666666667
tp2124
a(g1760
F0.88461538461538458
tp2125
a(g1763
F0.9285714285714286
tp2126
a(g1766
F0.80769230769230771
tp2127
a(g1769
F0.40740740740740738
tp2128
a(g1773
F0.92000000000000004
tp2129
a(g1776
F1
tp2130
a(g1779
F0.92000000000000004
tp2131
a(g1782
F1
tp2132
a(g1785
F0.6785714285714286
tp2133
a(g1789
F0.84848484848484851
tp2134
a(g1792
F0.34375
tp2135
a(g1795
F0.33333333333333331
tp2136
a(g1798
F1
tp2137
a(g1801
F0.20689655172413793
tp2138
a(g1804
F0.48275862068965519
tp2139
a(g1807
F1
tp2140
a(g1810
F0.92307692307692313
tp2141
a(g1813
F0.43333333333333335
tp2142
a(g1816
F0.52000000000000002
tp2143
a(g1819
F0.6785714285714286
tp2144
a(g1822
F1
tp2145
a(g1825
F1
tp2146
a(g1828
F0.7142857142857143
tp2147
a(g1832
F0.6071428571428571
tp2148
a(g1835
F1
tp2149
a(g1838
F0.4642857142857143
tp2150
a(g1841
F1
tp2151
a(g1844
F1
tp2152
a(g1847
F0.58620689655172409
tp2153
asss.