(dp1
S'DCG'
p2
(dp3
S'probabilistic'
p4
(dp5
S'RCM'
p6
(lp7
(cnumpy.core.multiarray
_reconstruct
p8
(cnumpy
ndarray
p9
(I0
tS'b'
tRp10
(I1
(I3
tcnumpy
dtype
p11
(S'O8'
I0
I1
tRp12
(I3
S'|'
NNNI-1
I-1
I63
tbI00
(lp13
(I1
I0
I2
I2
I0
tp14
a(I2
I0
I2
I2
I0
tp15
acnumpy.core.multiarray
scalar
p16
(g11
(S'f8'
I0
I1
tRp17
(I3
S'<'
NNNI-1
I-1
I0
tbS'\x00\x00\x00\x00\x00\x00\x00@'
tRp18
atbF0.41379310344827586
tp19
a(g8
(g9
(I0
tS'b'
tRp20
(I1
(I3
tg12
I00
(lp21
(I0
I0
I1
I0
I1
tp22
a(I2
I2
I1
I0
I0
tp23
ag16
(g17
S'M3\xa64\x14\x06\x12@'
tRp24
atbF0.4642857142857143
tp25
a(g8
(g9
(I0
tS'b'
tRp26
(I1
(I3
tg12
I00
(lp27
(I0
I0
I1
I1
I2
tp28
a(I1
I1
I1
I1
I0
tp29
ag16
(g17
S'\xa0J\xd6[\x90\x1a\xde?'
tRp30
atbF0.55172413793103448
tp31
a(g8
(g9
(I0
tS'b'
tRp32
(I1
(I3
tg12
I00
(lp33
(I0
I2
I0
I0
I2
tp34
a(I0
I1
I2
I1
I2
tp35
ag16
(g17
S'@\x1d\x18\x04\xf3f\xe5?'
tRp36
atbF0.42857142857142855
tp37
a(g8
(g9
(I0
tS'b'
tRp38
(I1
(I3
tg12
I00
(lp39
(I1
I2
I0
I1
I1
tp40
a(I1
I0
I2
I2
I1
tp41
ag16
(g17
S'\x80\xdf\xca@\xf3\xfc\xdd?'
tRp42
atbF0.45833333333333331
tp43
a(g8
(g9
(I0
tS'b'
tRp44
(I1
(I3
tg12
I00
(lp45
(I1
I0
I1
I1
I2
tp46
a(I2
I1
I2
I2
I2
tp47
ag16
(g17
S"\x97H'\x00\x19\xf8\x11@"
tRp48
atbF0.37931034482758619
tp49
a(g8
(g9
(I0
tS'b'
tRp50
(I1
(I3
tg12
I00
(lp51
(I1
I1
I2
I0
I1
tp52
a(I0
I0
I2
I0
I0
tp53
ag16
(g17
S'\xa4\xce\xe8.k$\x00\xc0'
tRp54
atbF0.34615384615384615
tp55
a(g8
(g9
(I0
tS'b'
tRp56
(I1
(I3
tg12
I00
(lp57
(I2
I2
I2
I2
I1
tp58
a(I0
I2
I1
I0
I2
tp59
ag16
(g17
S'\x93q\xd5\x8a\xc3\x12\x12\xc0'
tRp60
atbF0.53846153846153844
tp61
a(g8
(g9
(I0
tS'b'
tRp62
(I1
(I3
tg12
I00
(lp63
(I1
I2
I2
I0
I0
tp64
a(I1
I0
I1
I1
I0
tp65
ag16
(g17
S'\x00F\x07%h\xb2\x03\xc0'
tRp66
atbF0.5
tp67
a(g8
(g9
(I0
tS'b'
tRp68
(I1
(I3
tg12
I00
(lp69
(I2
I0
I0
I2
I0
tp70
a(I0
I0
I1
I2
I0
tp71
ag16
(g17
S'\x00\x00\x00\x00\x00\x00\x04\xc0'
tRp72
atbF0.7407407407407407
tp73
a(g8
(g9
(I0
tS'b'
tRp74
(I1
(I3
tg12
I00
(lp75
(I0
I1
I2
I2
I0
tp76
ag53
ag16
(g17
S'8f\xde\x1aq\xc4\xfe\xbf'
tRp77
atbF0.13793103448275862
tp78
a(g8
(g9
(I0
tS'b'
tRp79
(I1
(I3
tg12
I00
(lp80
(I1
I0
I1
I2
I0
tp81
a(I1
I1
I0
I2
I1
tp82
ag16
(g17
S'\x8c:\xa3\xbb\xac\x91\xe0?'
tRp83
atbF0.6071428571428571
tp84
a(g8
(g9
(I0
tS'b'
tRp85
(I1
(I3
tg12
I00
(lp86
g58
a(I1
I1
I0
I1
I0
tp87
ag16
(g17
S'\xe9\xaf\x9b\x97N\n\x18\xc0'
tRp88
atbF0.5
tp89
a(g8
(g9
(I0
tS'b'
tRp90
(I1
(I3
tg12
I00
(lp91
(I0
I0
I0
I0
I0
tp92
ag35
ag16
(g17
S':s\xc0M\xfe\xc6\r@'
tRp93
atbF0.55555555555555558
tp94
a(g8
(g9
(I0
tS'b'
tRp95
(I1
(I3
tg12
I00
(lp96
(I2
I1
I2
I1
I2
tp97
a(I0
I0
I0
I1
I0
tp98
ag16
(g17
S'\xa6\xe8O\xe0{*\x19\xc0'
tRp99
atbF0.5
tp100
a(g8
(g9
(I0
tS'b'
tRp101
(I1
(I3
tg12
I00
(lp102
(I1
I2
I2
I2
I2
tp103
a(I2
I2
I2
I0
I2
tp104
ag16
(g17
S'\xd0hxb\xb1\xa7\xe6?'
tRp105
atbF0.5714285714285714
tp106
a(g8
(g9
(I0
tS'b'
tRp107
(I1
(I3
tg12
I00
(lp108
(I2
I0
I1
I1
I2
tp109
a(I1
I2
I0
I1
I0
tp110
ag16
(g17
S'\x1c8\xd5P\xc8H\xfc\xbf'
tRp111
atbF0.62068965517241381
tp112
a(g8
(g9
(I0
tS'b'
tRp113
(I1
(I3
tg12
I00
(lp114
(I0
I0
I2
I2
I1
tp115
a(I1
I1
I2
I1
I0
tp116
ag16
(g17
S'\xf0@\x84\x17\x8c~\xd8?'
tRp117
atbF0.70967741935483875
tp118
a(g8
(g9
(I0
tS'b'
tRp119
(I1
(I3
tg12
I00
(lp120
(I1
I2
I2
I0
I1
tp121
a(I0
I1
I2
I1
I0
tp122
ag16
(g17
S'\x04z\xd5\x87\x89\xbe\x01\xc0'
tRp123
atbF0.5
tp124
a(g8
(g9
(I0
tS'b'
tRp125
(I1
(I3
tg12
I00
(lp126
(I2
I1
I0
I0
I2
tp127
a(I1
I0
I0
I1
I2
tp128
ag16
(g17
S'b\xab\xecX\x1e\x9a\x01\xc0'
tRp129
atbF0.57692307692307687
tp130
a(g8
(g9
(I0
tS'b'
tRp131
(I1
(I3
tg12
I00
(lp132
(I0
I2
I0
I0
I0
tp133
a(I1
I2
I1
I1
I2
tp134
ag16
(g17
S'\xea%\xb3g\xd9\xba\x08@'
tRp135
atbF0.625
tp136
a(g8
(g9
(I0
tS'b'
tRp137
(I1
(I3
tg12
I00
(lp138
(I2
I1
I2
I2
I0
tp139
a(I2
I0
I1
I0
I1
tp140
ag16
(g17
S'\xc8\xb1\x93D\xf2I\x04\xc0'
tRp141
atbF0.41379310344827586
tp142
a(g8
(g9
(I0
tS'b'
tRp143
(I1
(I3
tg12
I00
(lp144
(I0
I0
I0
I2
I1
tp145
a(I2
I0
I2
I1
I0
tp146
ag16
(g17
S'\xce:\xe3\x9c\xac\x03\n@'
tRp147
atbF0.42307692307692307
tp148
a(g8
(g9
(I0
tS'b'
tRp149
(I1
(I3
tg12
I00
(lp150
(I0
I1
I0
I1
I1
tp151
a(I0
I1
I0
I2
I1
tp152
ag16
(g17
S't\x0f\x05i4\x90\xeb?'
tRp153
atbF0.5
tp154
a(g8
(g9
(I0
tS'b'
tRp155
(I1
(I3
tg12
I00
(lp156
(I2
I1
I0
I0
I1
tp157
a(I2
I0
I0
I0
I1
tp158
ag16
(g17
S'@55\x98\x930\xe4\xbf'
tRp159
atbF0.23333333333333334
tp160
a(g8
(g9
(I0
tS'b'
tRp161
(I1
(I3
tg12
I00
(lp162
(I0
I2
I0
I2
I0
tp163
a(I2
I0
I0
I1
I0
tp164
ag16
(g17
S'@Cm9Cx\xcf?'
tRp165
atbF0.48148148148148145
tp166
a(g8
(g9
(I0
tS'b'
tRp167
(I1
(I3
tg12
I00
(lp168
(I1
I2
I1
I2
I0
tp169
ag158
ag16
(g17
S'\xcc\x98\\!x\xc4\xf4\xbf'
tRp170
atbF0.57692307692307687
tp171
a(g8
(g9
(I0
tS'b'
tRp172
(I1
(I3
tg12
I00
(lp173
(I0
I1
I1
I0
I2
tp174
a(I1
I1
I1
I0
I1
tp175
ag16
(g17
S'\x80\xd5\x8f\xe46\xf7\xcc?'
tRp176
atbF0.68965517241379315
tp177
a(g8
(g9
(I0
tS'b'
tRp178
(I1
(I3
tg12
I00
(lp179
(I2
I1
I2
I0
I2
tp180
ag109
ag16
(g17
S'\xc4V\xd9\xb1<4\xf3\xbf'
tRp181
atbF0.72413793103448276
tp182
a(g8
(g9
(I0
tS'b'
tRp183
(I1
(I3
tg12
I00
(lp184
g151
a(I0
I1
I0
I0
I2
tp185
ag16
(g17
S'\xcc\x05\xb3$0\xf4\xd5?'
tRp186
atbF0.38235294117647056
tp187
a(g8
(g9
(I0
tS'b'
tRp188
(I1
(I3
tg12
I00
(lp189
(I1
I2
I0
I2
I2
tp190
a(I0
I0
I2
I0
I2
tp191
ag16
(g17
S'\xba\xcd\x89Y\x82z\x05\xc0'
tRp192
atbF0.76923076923076927
tp193
a(g8
(g9
(I0
tS'b'
tRp194
(I1
(I3
tg12
I00
(lp195
(I1
I1
I0
I2
I2
tp196
ag158
ag16
(g17
S'\x10\xd7\x98|\x14K\xe6\xbf'
tRp197
atbF0.56666666666666665
tp198
a(g8
(g9
(I0
tS'b'
tRp199
(I1
(I3
tg12
I00
(lp200
g71
a(I1
I0
I1
I1
I1
tp201
ag16
(g17
S'\xda\xf5h\xba\xe4\xd0\xe0?'
tRp202
atbF0.52000000000000002
tp203
a(g8
(g9
(I0
tS'b'
tRp204
(I1
(I3
tg12
I00
(lp205
g127
a(I0
I1
I2
I0
I2
tp206
ag16
(g17
S'\x00\x00\x00\x00\x00\x00\xf8\xbf'
tRp207
atbF0.5
tp208
a(g8
(g9
(I0
tS'b'
tRp209
(I1
(I3
tg12
I00
(lp210
(I0
I0
I0
I1
I1
tp211
ag127
ag16
(g17
S'\n\xae\xa3\xea\xaa\xca\x0f@'
tRp212
atbF0.20689655172413793
tp213
a(g8
(g9
(I0
tS'b'
tRp214
(I1
(I3
tg12
I00
(lp215
(I2
I0
I1
I1
I0
tp216
a(I2
I0
I1
I2
I0
tp217
ag16
(g17
S'x\x0f\x05i4\x90\xeb?'
tRp218
atbF0.35714285714285715
tp219
a(g8
(g9
(I0
tS'b'
tRp220
(I1
(I3
tg12
I00
(lp221
(I2
I2
I1
I1
I1
tp222
a(I1
I1
I0
I0
I0
tp223
ag16
(g17
S'\xf0^\x0bQKQ\x12\xc0'
tRp224
atbF0.375
tp225
a(g8
(g9
(I0
tS'b'
tRp226
(I1
(I3
tg12
I00
(lp227
(I1
I0
I0
I2
I1
tp228
a(I2
I2
I2
I1
I2
tp229
ag16
(g17
S'\\\xd3\xce\x14w8\x15@'
tRp230
atbF0.35714285714285715
tp231
a(g8
(g9
(I0
tS'b'
tRp232
(I1
(I3
tg12
I00
(lp233
g180
a(I2
I1
I1
I0
I0
tp234
ag16
(g17
S'\xfc\x83\x92\xda\xd2H\x01\xc0'
tRp235
atbF0.5
tp236
a(g8
(g9
(I0
tS'b'
tRp237
(I1
(I3
tg12
I00
(lp238
(I2
I2
I2
I0
I0
tp239
a(I2
I2
I1
I1
I0
tp240
ag16
(g17
S'Hx}\xcb\xe57\xe2\xbf'
tRp241
atbF0.45833333333333331
tp242
a(g8
(g9
(I0
tS'b'
tRp243
(I1
(I3
tg12
I00
(lp244
(I2
I0
I0
I2
I1
tp245
a(I1
I1
I2
I0
I2
tp246
ag16
(g17
S'\xa0\xae\xec|\x11\xcb\xd8\xbf'
tRp247
atbF0.32142857142857145
tp248
a(g8
(g9
(I0
tS'b'
tRp249
(I1
(I3
tg12
I00
(lp250
(I0
I1
I1
I2
I0
tp251
ag65
ag16
(g17
S'd\x89t\x02\x90\x81\xdf\xbf'
tRp252
atbF0.64516129032258063
tp253
a(g8
(g9
(I0
tS'b'
tRp254
(I1
(I3
tg12
I00
(lp255
(I2
I1
I2
I1
I0
tp256
ag58
ag16
(g17
S'\xd2_7/\x9d\x14\x04@'
tRp257
atbF0.51724137931034486
tp258
a(g8
(g9
(I0
tS'b'
tRp259
(I1
(I3
tg12
I00
(lp260
(I1
I1
I1
I1
I1
tp261
a(I1
I1
I0
I0
I1
tp262
ag16
(g17
S'\xb8\x87\x824\x1a\xc8\xed\xbf'
tRp263
atbF0.47999999999999998
tp264
a(g8
(g9
(I0
tS'b'
tRp265
(I1
(I3
tg12
I00
(lp266
(I2
I0
I2
I0
I2
tp267
a(I2
I0
I2
I0
I1
tp268
ag16
(g17
S'\xa0\n\xdcF2\xc2\xe8\xbf'
tRp269
atbF0.41379310344827586
tp270
a(g8
(g9
(I0
tS'b'
tRp271
(I1
(I3
tg12
I00
(lp272
(I2
I1
I2
I1
I1
tp273
ag115
ag16
(g17
S'r\t\xcc\xcb\x17(\x06\xc0'
tRp274
atbF0.23333333333333334
tp275
a(g8
(g9
(I0
tS'b'
tRp276
(I1
(I3
tg12
I00
(lp277
(I0
I1
I1
I2
I1
tp278
a(I1
I1
I1
I0
I2
tp279
ag16
(g17
S'\xe8\xe6\xa8R\xc7\xd3\xde?'
tRp280
atbF0.2857142857142857
tp281
a(g8
(g9
(I0
tS'b'
tRp282
(I1
(I3
tg12
I00
(lp283
(I2
I1
I2
I0
I0
tp284
a(I0
I1
I1
I0
I0
tp285
ag16
(g17
S'\x00\x00\x00\x00\x00\x00\x10\xc0'
tRp286
atbF0.35483870967741937
tp287
a(g8
(g9
(I0
tS'b'
tRp288
(I1
(I3
tg12
I00
(lp289
(I0
I0
I0
I2
I0
tp290
a(I1
I2
I0
I2
I1
tp291
ag16
(g17
S'Bi\x03\xfb\xb4<\n@'
tRp292
atbF0.39393939393939392
tp293
a(g8
(g9
(I0
tS'b'
tRp294
(I1
(I3
tg12
I00
(lp295
(I1
I1
I1
I1
I2
tp296
a(I2
I1
I2
I0
I1
tp297
ag16
(g17
S'\xd4\xb6P\xc2\xd9\xba\xfc?'
tRp298
atbF0.39285714285714285
tp299
a(g8
(g9
(I0
tS'b'
tRp300
(I1
(I3
tg12
I00
(lp301
g296
ag87
ag16
(g17
S'\xf8\x07%\xb5\xa5\x91\xfa\xbf'
tRp302
atbF0.40740740740740738
tp303
a(g8
(g9
(I0
tS'b'
tRp304
(I1
(I3
tg12
I00
(lp305
(I2
I1
I1
I0
I1
tp306
ag306
ag16
(g17
S'\x00\x00\x00\x00\x00\x00\x00\x00'
tRp307
atbF0.68965517241379315
tp308
a(g8
(g9
(I0
tS'b'
tRp309
(I1
(I3
tg12
I00
(lp310
g104
a(I2
I1
I1
I1
I0
tp311
ag16
(g17
S'\xac|\x8c\x19\x16\xef\x07\xc0'
tRp312
atbF0.33333333333333331
tp313
a(g8
(g9
(I0
tS'b'
tRp314
(I1
(I3
tg12
I00
(lp315
(I0
I0
I1
I1
I0
tp316
a(I1
I2
I1
I2
I2
tp317
ag16
(g17
S'\xe4\xd7}S\xa7\xa8\x13@'
tRp318
atbF0.7142857142857143
tp319
a(g8
(g9
(I0
tS'b'
tRp320
(I1
(I3
tg12
I00
(lp321
g35
a(I0
I0
I1
I0
I0
tp322
ag16
(g17
S':s\xc0M\xfe\xc6\t\xc0'
tRp323
atbF0.30769230769230771
tp324
a(g8
(g9
(I0
tS'b'
tRp325
(I1
(I3
tg12
I00
(lp326
(I2
I1
I0
I1
I0
tp327
a(I1
I2
I0
I0
I1
tp328
ag16
(g17
S'\xf0\x17\xaa\xe0\xd9\x05\xe9\xbf'
tRp329
atbF0.33333333333333331
tp330
a(g8
(g9
(I0
tS'b'
tRp331
(I1
(I3
tg12
I00
(lp332
(I2
I2
I2
I2
I2
tp333
a(I2
I2
I2
I2
I0
tp334
ag16
(g17
S'\xfc\x07%\xb5\xa5\x91\xf2\xbf'
tRp335
atbF0.40740740740740738
tp336
a(g8
(g9
(I0
tS'b'
tRp337
(I1
(I3
tg12
I00
(lp338
g82
ag53
ag16
(g17
S'\xdeh\x95\xac\xfd\xf4\xfc\xbf'
tRp339
atbF0.5
tp340
a(g8
(g9
(I0
tS'b'
tRp341
(I1
(I3
tg12
I00
(lp342
g251
a(I2
I2
I0
I2
I0
tp343
ag16
(g17
S'\x9f\x9a\x1a\xccI\x18\x0e@'
tRp344
atbF0.36666666666666664
tp345
a(g8
(g9
(I0
tS'b'
tRp346
(I1
(I3
tg12
I00
(lp347
g115
a(I0
I2
I0
I1
I1
tp348
ag16
(g17
S'\x80\xdf\xca@\xf3\xfc\xdd\xbf'
tRp349
atbF0.37037037037037035
tp350
a(g8
(g9
(I0
tS'b'
tRp351
(I1
(I3
tg12
I00
(lp352
(I2
I1
I1
I1
I2
tp353
a(I1
I0
I0
I2
I0
tp354
ag16
(g17
S'n\x8d^\xa6\xeap\x0b\xc0'
tRp355
atbF0.42307692307692307
tp356
a(g8
(g9
(I0
tS'b'
tRp357
(I1
(I3
tg12
I00
(lp358
g140
a(I0
I0
I0
I2
I2
tp359
ag16
(g17
S'\x18/\xce\x8d\xbf\xf2\xf6\xbf'
tRp360
atbF0.53333333333333333
tp361
a(g8
(g9
(I0
tS'b'
tRp362
(I1
(I3
tg12
I00
(lp363
(I1
I2
I1
I0
I1
tp364
a(I0
I1
I1
I1
I0
tp365
ag16
(g17
S'\x04z\xd5\x87\x89\xbe\x01\xc0'
tRp366
atbF0.80000000000000004
tp367
a(g8
(g9
(I0
tS'b'
tRp368
(I1
(I3
tg12
I00
(lp369
g128
a(I0
I2
I2
I2
I1
tp370
ag16
(g17
S'$)\xb2:\xef\xd7\x03@'
tRp371
atbF0.33333333333333331
tp372
a(g8
(g9
(I0
tS'b'
tRp373
(I1
(I3
tg12
I00
(lp374
(I1
I0
I0
I1
I1
tp375
a(I2
I0
I0
I1
I2
tp376
ag16
(g17
S'\xa8\x02\xb7\x91\x8c0\x06@'
tRp377
atbF0.48148148148148145
tp378
a(g8
(g9
(I0
tS'b'
tRp379
(I1
(I3
tg12
I00
(lp380
g52
ag134
ag16
(g17
S'h~\xe4\xd5\xb9u\xf7?'
tRp381
atbF0.58064516129032262
tp382
a(g8
(g9
(I0
tS'b'
tRp383
(I1
(I3
tg12
I00
(lp384
g353
a(I0
I2
I1
I0
I1
tp385
ag16
(g17
S'\xf8\t\xbdRI\x8a\x07\xc0'
tRp386
atbF0.5
tp387
a(g8
(g9
(I0
tS'b'
tRp388
(I1
(I3
tg12
I00
(lp389
g70
ag290
ag16
(g17
S'\x00\x00\x00\x00\x00\x00\x08\xc0'
tRp390
atbF0.36666666666666664
tp391
a(g8
(g9
(I0
tS'b'
tRp392
(I1
(I3
tg12
I00
(lp393
g15
a(I2
I1
I0
I0
I0
tp394
ag16
(g17
S'|\x98T\xc1\xeeI\x01\xc0'
tRp395
atbF0.40000000000000002
tp396
a(g8
(g9
(I0
tS'b'
tRp397
(I1
(I3
tg12
I00
(lp398
(I1
I1
I1
I2
I1
tp399
ag353
ag16
(g17
S'\x94}\xeb\xee\xfe\x98\xfe?'
tRp400
atbF0.68000000000000005
tp401
a(g8
(g9
(I0
tS'b'
tRp402
(I1
(I3
tg12
I00
(lp403
(I0
I2
I0
I1
I2
tp404
ag71
ag16
(g17
S'\x19P\xf2\xe4h\x12\xfb\xbf'
tRp405
atbF0.42857142857142855
tp406
a(g8
(g9
(I0
tS'b'
tRp407
(I1
(I3
tg12
I00
(lp408
g82
a(I2
I2
I0
I2
I2
tp409
ag16
(g17
S'\xa4\xce\xe8.k$\x10@'
tRp410
atbF0.53333333333333333
tp411
a(g8
(g9
(I0
tS'b'
tRp412
(I1
(I3
tg12
I00
(lp413
g47
ag354
ag16
(g17
S'\xa6\xe8O\xe0{*\x15\xc0'
tRp414
atbF0.23999999999999999
tp415
a(g8
(g9
(I0
tS'b'
tRp416
(I1
(I3
tg12
I00
(lp417
g65
ag127
ag16
(g17
S'^/\x7f3\xf1\xe2\x06@'
tRp418
atbF0.62068965517241381
tp419
a(g8
(g9
(I0
tS'b'
tRp420
(I1
(I3
tg12
I00
(lp421
g297
ag317
ag16
(g17
S'\x90\x18\x9c)P\xf7\xd4?'
tRp422
atbF0.55555555555555558
tp423
a(g8
(g9
(I0
tS'b'
tRp424
(I1
(I3
tg12
I00
(lp425
g216
a(I2
I0
I1
I0
I0
tp426
ag16
(g17
S'p\x0f\x05i4\x90\xdb\xbf'
tRp427
atbF0.5
tp428
a(g8
(g9
(I0
tS'b'
tRp429
(I1
(I3
tg12
I00
(lp430
g97
a(I0
I0
I2
I0
I1
tp431
ag16
(g17
S'\xf3xr\x02\\W\x13\xc0'
tRp432
atbF0.33333333333333331
tp433
a(g8
(g9
(I0
tS'b'
tRp434
(I1
(I3
tg12
I00
(lp435
g426
ag251
ag16
(g17
S'\xca\x99!\xe5\x8e;\xf1\xbf'
tRp436
atbF0.69999999999999996
tp437
a(g8
(g9
(I0
tS'b'
tRp438
(I1
(I3
tg12
I00
(lp439
g251
a(I1
I0
I2
I1
I0
tp440
ag16
(g17
S'L\xbb\xc5\xfe7?\xe0?'
tRp441
atbF0.5
tp442
a(g8
(g9
(I0
tS'b'
tRp443
(I1
(I3
tg12
I00
(lp444
(I0
I2
I1
I1
I1
tp445
ag65
ag16
(g17
S'\x83\xd2\x06\xf6iy\xf4\xbf'
tRp446
atbF0.57692307692307687
tp447
a(g8
(g9
(I0
tS'b'
tRp448
(I1
(I3
tg12
I00
(lp449
(I1
I0
I1
I2
I1
tp450
a(I1
I0
I2
I1
I1
tp451
ag16
(g17
S' \xc2\xeb[.\xbf\xc1?'
tRp452
atbF0.40000000000000002
tp453
a(g8
(g9
(I0
tS'b'
tRp454
(I1
(I3
tg12
I00
(lp455
g58
ag97
ag16
(g17
S'\xac\xb7I\xa9\x94\x97\xf5\xbf'
tRp456
atbF0.47999999999999998
tp457
a(g8
(g9
(I0
tS'b'
tRp458
(I1
(I3
tg12
I00
(lp459
g343
ag246
ag16
(g17
S'\xdc\xf8\xd31\x15K\xfe\xbf'
tRp460
atbF0.32000000000000001
tp461
a(g8
(g9
(I0
tS'b'
tRp462
(I1
(I3
tg12
I00
(lp463
g15
a(I2
I0
I1
I2
I1
tp464
ag16
(g17
S'\xb0\xfa\x91\xdc\xe6\x9e\xe3\xbf'
tRp465
atbF0.47826086956521741
tp466
a(g8
(g9
(I0
tS'b'
tRp467
(I1
(I3
tg12
I00
(lp468
g133
ag104
ag16
(g17
S'\xfeAImi\xa4\x16@'
tRp469
atbF0.59375
tp470
a(g8
(g9
(I0
tS'b'
tRp471
(I1
(I3
tg12
I00
(lp472
g71
ag322
ag16
(g17
S"\x97\xcb\xc3N'\xac\xf4\xbf"
tRp473
atbF0.44827586206896552
tp474
a(g8
(g9
(I0
tS'b'
tRp475
(I1
(I3
tg12
I00
(lp476
g211
ag191
ag16
(g17
S's\xc1,\t\x0c}\xfd?'
tRp477
atbF0.63636363636363635
tp478
a(g8
(g9
(I0
tS'b'
tRp479
(I1
(I3
tg12
I00
(lp480
g217
a(I1
I0
I2
I0
I1
tp481
ag16
(g17
S'\xf0\xc8\x0c\xbd\x9a{\xfe\xbf'
tRp482
atbF0.34482758620689657
tp483
a(g8
(g9
(I0
tS'b'
tRp484
(I1
(I3
tg12
I00
(lp485
(I2
I1
I0
I1
I2
tp486
ag234
ag16
(g17
S'\xd4Kf\xcf\xb2u\xf1\xbf'
tRp487
atbF0.39285714285714285
tp488
a(g8
(g9
(I0
tS'b'
tRp489
(I1
(I3
tg12
I00
(lp490
g375
ag128
ag16
(g17
S'\x9e\n\xdcF2\xc2\xe8?'
tRp491
atbF0.5
tp492
a(g8
(g9
(I0
tS'b'
tRp493
(I1
(I3
tg12
I00
(lp494
g15
a(I0
I0
I0
I0
I2
tp495
ag16
(g17
S'\xe8\xb0gf\xa0\x86\x12\xc0'
tRp496
atbF0.33333333333333331
tp497
a(g8
(g9
(I0
tS'b'
tRp498
(I1
(I3
tg12
I00
(lp499
(I0
I1
I2
I2
I1
tp500
ag376
ag16
(g17
S'\xe8\xc5\xa1Ej\x01\xe9?'
tRp501
atbF0.7142857142857143
tp502
a(g8
(g9
(I0
tS'b'
tRp503
(I1
(I3
tg12
I00
(lp504
(I0
I2
I0
I2
I1
tp505
ag23
ag16
(g17
S'\xc01\x85\x1fL#\xfd?'
tRp506
atbF0.46875
tp507
a(g8
(g9
(I0
tS'b'
tRp508
(I1
(I3
tg12
I00
(lp509
g279
ag53
ag16
(g17
S'\x98\xa2?\x81\xef\xa9\xfc\xbf'
tRp510
atbF0.375
tp511
a(g8
(g9
(I0
tS'b'
tRp512
(I1
(I3
tg12
I00
(lp513
g375
ag375
ag16
(g17
S'\x00\x00\x00\x00\x00\x00\x00\x00'
tRp514
atbF0.66666666666666663
tp515
a(g8
(g9
(I0
tS'b'
tRp516
(I1
(I3
tg12
I00
(lp517
g464
ag115
ag16
(g17
S'\x00\x00\x00\x00\x00\x00\x00\xc0'
tRp518
atbF0.69565217391304346
tp519
a(g8
(g9
(I0
tS'b'
tRp520
(I1
(I3
tg12
I00
(lp521
(I1
I0
I1
I0
I2
tp522
ag116
ag16
(g17
S'\x08\xadmbb\xd5\xec?'
tRp523
atbF0.45833333333333331
tp524
a(g8
(g9
(I0
tS'b'
tRp525
(I1
(I3
tg12
I00
(lp526
(I0
I2
I2
I0
I0
tp527
a(I2
I0
I2
I0
I0
tp528
ag16
(g17
S'$0\xb0\x9b"\xb7\xf1?'
tRp529
atbF0.53333333333333333
tp530
a(g8
(g9
(I0
tS'b'
tRp531
(I1
(I3
tg12
I00
(lp532
g146
ag70
ag16
(g17
S'\x88\xf0\xfa\x96\xcbo\xe4\xbf'
tRp533
atbF0.58064516129032262
tp534
a(g8
(g9
(I0
tS'b'
tRp535
(I1
(I3
tg12
I00
(lp536
(I1
I1
I0
I0
I2
tp537
ag128
ag16
(g17
S' \xb6\xca\x8e\xe5\xa1\xc9\xbf'
tRp538
atbF0.44444444444444442
tp539
asS'SDCM'
p540
(lp541
(g10
F0.59999999999999998
tp542
a(g20
F1
tp543
a(g26
F0.80000000000000004
tp544
a(g32
F1
tp545
a(g38
F0.77142857142857146
tp546
a(g44
F0.34285714285714286
tp547
a(g50
F0
tp548
a(g56
F0
tp549
a(g62
F0.31428571428571428
tp550
a(g68
F0.37142857142857144
tp551
a(g74
F0
tp552
a(g79
F0.7142857142857143
tp553
a(g85
F0.37142857142857144
tp554
a(g90
F1
tp555
a(g95
F0
tp556
a(g101
F0
tp557
a(g107
F1
tp558
a(g113
F0.65714285714285714
tp559
a(g119
F0
tp560
a(g125
F0.31428571428571428
tp561
a(g131
F1
tp562
a(g137
F0
tp563
a(g143
F1
tp564
a(g149
F0.68571428571428572
tp565
a(g155
F0
tp566
a(g161
F1
tp567
a(g167
F0.48571428571428571
tp568
a(g172
F0.94285714285714284
tp569
a(g178
F1
tp570
a(g183
F0.057142857142857141
tp571
a(g188
F0.42857142857142855
tp572
a(g194
F0.5714285714285714
tp573
a(g199
F0.74285714285714288
tp574
a(g204
F0
tp575
a(g209
F1
tp576
a(g214
F0
tp577
a(g220
F0
tp578
a(g226
F1
tp579
a(g232
F1
tp580
a(g237
F1
tp581
a(g243
F0
tp582
a(g249
F0.77142857142857146
tp583
a(g254
F1
tp584
a(g259
F0.68571428571428572
tp585
a(g265
F1
tp586
a(g271
F0
tp587
a(g276
F0
tp588
a(g282
F0
tp589
a(g288
F1
tp590
a(g294
F1
tp591
a(g300
F0
tp592
a(g304
F1
tp593
a(g309
F0
tp594
a(g314
F1
tp595
a(g320
F0.51428571428571423
tp596
a(g325
F0
tp597
a(g331
F1
tp598
a(g337
F0
tp599
a(g341
F1
tp600
a(g346
F0.54285714285714282
tp601
a(g351
F0
tp602
a(g357
F0
tp603
a(g362
F0.91428571428571426
tp604
a(g368
F1
tp605
a(g373
F1
tp606
a(g379
F0.37142857142857144
tp607
a(g383
F0.42857142857142855
tp608
a(g388
F0
tp609
a(g392
F0
tp610
a(g397
F0.51428571428571423
tp611
a(g402
F0
tp612
a(g407
F1
tp613
a(g412
F0.45714285714285713
tp614
a(g416
F0.51428571428571423
tp615
a(g420
F1
tp616
a(g424
F0
tp617
a(g429
F0
tp618
a(g434
F0.68571428571428572
tp619
a(g438
F1
tp620
a(g443
F0.82857142857142863
tp621
a(g448
F0.057142857142857141
tp622
a(g454
F0
tp623
a(g458
F0
tp624
a(g462
F0
tp625
a(g467
F1
tp626
a(g471
F0
tp627
a(g475
F0.20000000000000001
tp628
a(g479
F0
tp629
a(g484
F1
tp630
a(g489
F0.77142857142857146
tp631
a(g493
F0
tp632
a(g498
F1
tp633
a(g503
F1
tp634
a(g508
F0
tp635
a(g512
F0.42857142857142855
tp636
a(g516
F0
tp637
a(g520
F0.085714285714285715
tp638
a(g525
F1
tp639
a(g531
F1
tp640
a(g535
F0.17142857142857143
tp641
assS'team'
p642
(dp643
g6
(lp644
(g10
F0.44444444444444442
tp645
a(g20
F0.69565217391304346
tp646
a(g26
F0.52000000000000002
tp647
a(g32
F0.5
tp648
a(g38
F0.5
tp649
a(g44
F0.58333333333333337
tp650
a(g50
F0.47619047619047616
tp651
a(g56
F0.54545454545454541
tp652
a(g62
F0.40909090909090912
tp653
a(g68
F0.61111111111111116
tp654
a(g74
F0.36363636363636365
tp655
a(g79
F0.5
tp656
a(g85
F0.54166666666666663
tp657
a(g90
F0.54166666666666663
tp658
a(g95
F0.58333333333333337
tp659
a(g101
F0.60869565217391308
tp660
a(g107
F0.32000000000000001
tp661
a(g113
F0.55000000000000004
tp662
a(g119
F0.45454545454545453
tp663
a(g125
F0.52173913043478259
tp664
a(g131
F0.59999999999999998
tp665
a(g137
F0.63157894736842102
tp666
a(g143
F0.5625
tp667
a(g149
F0.59999999999999998
tp668
a(g155
F0.58333333333333337
tp669
a(g161
F0.36363636363636365
tp670
a(g167
F0.61111111111111116
tp671
a(g172
F0.45000000000000001
tp672
a(g178
F0.5
tp673
a(g183
F0.625
tp674
a(g188
F0.52173913043478259
tp675
a(g194
F0.54166666666666663
tp676
a(g199
F0.66666666666666663
tp677
a(g204
F0.5714285714285714
tp678
a(g209
F0.47368421052631576
tp679
a(g214
F0.44
tp680
a(g220
F0.65000000000000002
tp681
a(g226
F0.58333333333333337
tp682
a(g232
F0.45000000000000001
tp683
a(g237
F0.47368421052631576
tp684
a(g243
F0.61538461538461542
tp685
a(g249
F0.60869565217391308
tp686
a(g254
F0.75
tp687
a(g259
F0.54166666666666663
tp688
a(g265
F0.52173913043478259
tp689
a(g271
F0.47619047619047616
tp690
a(g276
F0.52173913043478259
tp691
a(g282
F0.48148148148148145
tp692
a(g288
F0.34782608695652173
tp693
a(g294
F0.40000000000000002
tp694
a(g300
F0.54545454545454541
tp695
a(g304
F0.41666666666666669
tp696
a(g309
F0.45454545454545453
tp697
a(g314
F0.56521739130434778
tp698
a(g320
F0.52941176470588236
tp699
a(g325
F0.46153846153846156
tp700
a(g331
F0.5
tp701
a(g337
F0.6071428571428571
tp702
a(g341
F0.31818181818181818
tp703
a(g346
F0.47619047619047616
tp704
a(g351
F0.6470588235294118
tp705
a(g357
F0.41176470588235292
tp706
a(g362
F0.44444444444444442
tp707
a(g368
F0.33333333333333331
tp708
a(g373
F0.55000000000000004
tp709
a(g379
F0.5
tp710
a(g383
F0.59999999999999998
tp711
a(g388
F0.46153846153846156
tp712
a(g392
F0.375
tp713
a(g397
F0.43478260869565216
tp714
a(g402
F0.5
tp715
a(g407
F0.43478260869565216
tp716
a(g412
F0.45833333333333331
tp717
a(g416
F0.54545454545454541
tp718
a(g420
F0.54545454545454541
tp719
a(g424
F0.56521739130434778
tp720
a(g429
F0.625
tp721
a(g434
F0.52173913043478259
tp722
a(g438
F0.48148148148148145
tp723
a(g443
F0.40909090909090912
tp724
a(g448
F0.76190476190476186
tp725
a(g454
F0.375
tp726
a(g458
F0.2608695652173913
tp727
a(g462
F0.5
tp728
a(g467
F0.58823529411764708
tp729
a(g471
F0.47999999999999998
tp730
a(g475
F0.35999999999999999
tp731
a(g479
F0.41666666666666669
tp732
a(g484
F0.58333333333333337
tp733
a(g489
F0.45833333333333331
tp734
a(g493
F0.40000000000000002
tp735
a(g498
F0.5714285714285714
tp736
a(g503
F0.41666666666666669
tp737
a(g508
F0.69999999999999996
tp738
a(g512
F0.54545454545454541
tp739
a(g516
F0.55000000000000004
tp740
a(g520
F0.54166666666666663
tp741
a(g525
F0.56521739130434778
tp742
a(g531
F0.5625
tp743
a(g535
F0.59999999999999998
tp744
asg540
(lp745
(g10
F0.8571428571428571
tp746
a(g20
F1
tp747
a(g26
F0.83870967741935487
tp748
a(g32
F0.47619047619047616
tp749
a(g38
F0.37037037037037035
tp750
a(g44
F0.96296296296296291
tp751
a(g50
F0
tp752
a(g56
F0
tp753
a(g62
F0.15625
tp754
a(g68
F0.041666666666666664
tp755
a(g74
F0.26923076923076922
tp756
a(g79
F0.51724137931034486
tp757
a(g85
F0.3125
tp758
a(g90
F1
tp759
a(g95
F0
tp760
a(g101
F0.96551724137931039
tp761
a(g107
F0.068965517241379309
tp762
a(g113
F0.66666666666666663
tp763
a(g119
F0.14814814814814814
tp764
a(g125
F0.1111111111111111
tp765
a(g131
F0.86363636363636365
tp766
a(g137
F0.09375
tp767
a(g143
F1
tp768
a(g149
F0.68000000000000005
tp769
a(g155
F0.038461538461538464
tp770
a(g161
F0.57692307692307687
tp771
a(g167
F0.12
tp772
a(g172
F0.55555555555555558
tp773
a(g178
F0.81481481481481477
tp774
a(g183
F0.45000000000000001
tp775
a(g188
F0
tp776
a(g194
F0.5
tp777
a(g199
F0.6785714285714286
tp778
a(g204
F0.125
tp779
a(g209
F1
tp780
a(g214
F0.96153846153846156
tp781
a(g220
F0.41935483870967744
tp782
a(g226
F0.65625
tp783
a(g232
F0.77419354838709675
tp784
a(g237
F0.83999999999999997
tp785
a(g243
F0.25925925925925924
tp786
a(g249
F0.4642857142857143
tp787
a(g254
F0.27272727272727271
tp788
a(g259
F0.5161290322580645
tp789
a(g265
F0.80000000000000004
tp790
a(g271
F0.03125
tp791
a(g276
F0.66666666666666663
tp792
a(g282
F0
tp793
a(g288
F1
tp794
a(g294
F0.66666666666666663
tp795
a(g300
F0.44827586206896552
tp796
a(g304
F0.096774193548387094
tp797
a(g309
F0.7931034482758621
tp798
a(g314
F1
tp799
a(g320
F0
tp800
a(g325
F0.44444444444444442
tp801
a(g331
F0.88888888888888884
tp802
a(g337
F0.12903225806451613
tp803
a(g341
F0.96666666666666667
tp804
a(g346
F0.80952380952380953
tp805
a(g351
F0.35483870967741937
tp806
a(g357
F0.096774193548387094
tp807
a(g362
F0.066666666666666666
tp808
a(g368
F0.6470588235294118
tp809
a(g373
F0.59259259259259256
tp810
a(g379
F0.625
tp811
a(g383
F0.045454545454545456
tp812
a(g388
F0
tp813
a(g392
F0.071428571428571425
tp814
a(g397
F0.625
tp815
a(g402
F0.037037037037037035
tp816
a(g407
F0.96875
tp817
a(g412
F0
tp818
a(g416
F0.69230769230769229
tp819
a(g420
F0.54545454545454541
tp820
a(g424
F0
tp821
a(g429
F0
tp822
a(g434
F0.20833333333333334
tp823
a(g438
F0.69230769230769229
tp824
a(g443
F0.29032258064516131
tp825
a(g448
F0.56000000000000005
tp826
a(g454
F0.75862068965517238
tp827
a(g458
F0.41379310344827586
tp828
a(g462
F0.10000000000000001
tp829
a(g467
F1
tp830
a(g471
F0.18518518518518517
tp831
a(g475
F0.94736842105263153
tp832
a(g479
F0.071428571428571425
tp833
a(g484
F0.75862068965517238
tp834
a(g489
F0.44444444444444442
tp835
a(g493
F0
tp836
a(g498
F0.72727272727272729
tp837
a(g503
F0.96296296296296291
tp838
a(g508
F0.034482758620689655
tp839
a(g512
F0.58620689655172409
tp840
a(g516
F0.038461538461538464
tp841
a(g520
F0.59259259259259256
tp842
a(g525
F1
tp843
a(g531
F0.6333333333333333
tp844
a(g535
F0.40000000000000002
tp845
asssS'ERR'
p846
(dp847
g4
(dp848
g6
(lp849
(g8
(g9
(I0
tS'b'
tRp850
(I1
(I3
tg12
I00
(lp851
g365
ag445
aF0.1919270833333333
atbF0.5
tp852
a(g8
(g9
(I0
tS'b'
tRp853
(I1
(I3
tg12
I00
(lp854
(I1
I2
I2
I2
I0
tp855
a(I2
I2
I2
I0
I1
tp856
aF0.27324218749999996
atbF0.34375
tp857
a(g8
(g9
(I0
tS'b'
tRp858
(I1
(I3
tg12
I00
(lp859
(I0
I2
I2
I1
I1
tp860
ag109
aF0.35989583333333341
atbF0.5161290322580645
tp861
a(g8
(g9
(I0
tS'b'
tRp862
(I1
(I3
tg12
I00
(lp863
g261
a(I0
I2
I1
I0
I0
tp864
aF-0.036979166666666674
atbF0.65625
tp865
a(g8
(g9
(I0
tS'b'
tRp866
(I1
(I3
tg12
I00
(lp867
(I2
I2
I1
I2
I1
tp868
ag190
aF-0.28489583333333335
atbF0.37931034482758619
tp869
a(g8
(g9
(I0
tS'b'
tRp870
(I1
(I3
tg12
I00
(lp871
g317
ag404
aF-0.15976562499999997
atbF0.67647058823529416
tp872
a(g8
(g9
(I0
tS'b'
tRp873
(I1
(I3
tg12
I00
(lp874
(I1
I1
I2
I2
I2
tp875
ag47
aF0.32265624999999998
atbF0.5714285714285714
tp876
a(g8
(g9
(I0
tS'b'
tRp877
(I1
(I3
tg12
I00
(lp878
(I2
I0
I1
I2
I2
tp879
a(I1
I1
I0
I1
I1
tp880
aF-0.41302083333333339
atbF0.58620689655172409
tp881
a(g8
(g9
(I0
tS'b'
tRp882
(I1
(I3
tg12
I00
(lp883
g22
a(I1
I2
I2
I1
I1
tp884
aF0.46197916666666661
atbF0.69565217391304346
tp885
a(g8
(g9
(I0
tS'b'
tRp886
(I1
(I3
tg12
I00
(lp887
g133
a(I0
I0
I0
I0
I1
tp888
aF-0.32500000000000001
atbF0.5
tp889
a(g8
(g9
(I0
tS'b'
tRp890
(I1
(I3
tg12
I00
(lp891
g445
ag364
aF0.13932291666666674
atbF0.40000000000000002
tp892
a(g8
(g9
(I0
tS'b'
tRp893
(I1
(I3
tg12
I00
(lp894
g163
a(I1
I0
I0
I0
I2
tp895
aF-0.059375000000000011
atbF0.54545454545454541
tp896
a(g8
(g9
(I0
tS'b'
tRp897
(I1
(I3
tg12
I00
(lp898
g146
ag116
aF-0.3232421875
atbF0.42424242424242425
tp899
a(g8
(g9
(I0
tS'b'
tRp900
(I1
(I3
tg12
I00
(lp901
g82
ag229
aF0.40585937499999997
atbF0.43333333333333335
tp902
a(g8
(g9
(I0
tS'b'
tRp903
(I1
(I3
tg12
I00
(lp904
g311
a(I0
I2
I2
I1
I0
tp905
aF-0.3642578125
atbF0.55172413793103448
tp906
a(g8
(g9
(I0
tS'b'
tRp907
(I1
(I3
tg12
I00
(lp908
g364
ag440
aF-0.10468750000000004
atbF0.4838709677419355
tp909
a(g8
(g9
(I0
tS'b'
tRp910
(I1
(I3
tg12
I00
(lp911
(I2
I1
I0
I2
I0
tp912
ag864
aF-0.42057291666666669
atbF0.2857142857142857
tp913
a(g8
(g9
(I0
tS'b'
tRp914
(I1
(I3
tg12
I00
(lp915
(I1
I1
I1
I2
I2
tp916
a(I2
I2
I1
I0
I1
tp917
aF0.36575520833333336
atbF0.46666666666666667
tp918
a(g8
(g9
(I0
tS'b'
tRp919
(I1
(I3
tg12
I00
(lp920
g87
a(I2
I2
I1
I1
I2
tp921
aF0.47825520833333335
atbF0.30434782608695654
tp922
a(g8
(g9
(I0
tS'b'
tRp923
(I1
(I3
tg12
I00
(lp924
g163
ag916
aF0.063671874999999989
atbF0.42307692307692307
tp925
a(g8
(g9
(I0
tS'b'
tRp926
(I1
(I3
tg12
I00
(lp927
(I2
I0
I2
I1
I1
tp928
ag229
aF0.043359374999999978
atbF0.46666666666666667
tp929
a(g8
(g9
(I0
tS'b'
tRp930
(I1
(I3
tg12
I00
(lp931
(I0
I0
I1
I1
I1
tp932
a(I0
I1
I0
I1
I2
tp933
aF0.097916666666666652
atbF0.59999999999999998
tp934
a(g8
(g9
(I0
tS'b'
tRp935
(I1
(I3
tg12
I00
(lp936
g500
a(I2
I0
I0
I0
I0
tp937
aF0.40000000000000002
atbF0.30769230769230771
tp938
a(g8
(g9
(I0
tS'b'
tRp939
(I1
(I3
tg12
I00
(lp940
(I0
I2
I1
I1
I2
tp941
a(I2
I2
I1
I2
I2
tp942
aF0.43085937499999999
atbF0.4642857142857143
tp943
a(g8
(g9
(I0
tS'b'
tRp944
(I1
(I3
tg12
I00
(lp945
g921
ag440
aF-0.40794270833333335
atbF0.52000000000000002
tp946
a(g8
(g9
(I0
tS'b'
tRp947
(I1
(I3
tg12
I00
(lp948
(I1
I1
I1
I2
I0
tp949
a(I0
I2
I2
I1
I2
tp950
aF-0.021289062500000011
atbF0.41666666666666669
tp951
a(g8
(g9
(I0
tS'b'
tRp952
(I1
(I3
tg12
I00
(lp953
(I1
I1
I0
I2
I0
tp954
ag234
aF0.34765625
atbF0.65384615384615385
tp955
a(g8
(g9
(I0
tS'b'
tRp956
(I1
(I3
tg12
I00
(lp957
g180
a(I2
I2
I0
I2
I1
tp958
aF0.021093749999999911
atbF0.32258064516129031
tp959
a(g8
(g9
(I0
tS'b'
tRp960
(I1
(I3
tg12
I00
(lp961
(I2
I0
I0
I1
I1
tp962
ag296
aF-0.310546875
atbF0.53846153846153844
tp963
a(g8
(g9
(I0
tS'b'
tRp964
(I1
(I3
tg12
I00
(lp965
g348
ag464
aF0.40833333333333333
atbF0.32000000000000001
tp966
a(g8
(g9
(I0
tS'b'
tRp967
(I1
(I3
tg12
I00
(lp968
(I0
I0
I1
I0
I2
tp969
a(I2
I1
I1
I2
I1
tp970
aF0.62916666666666665
atbF0.6785714285714286
tp971
a(g8
(g9
(I0
tS'b'
tRp972
(I1
(I3
tg12
I00
(lp973
(I1
I1
I2
I1
I1
tp974
ag969
aF-0.30260416666666667
atbF0.53333333333333333
tp975
a(g8
(g9
(I0
tS'b'
tRp976
(I1
(I3
tg12
I00
(lp977
(I0
I0
I2
I1
I1
tp978
ag328
aF0.265625
atbF0.37931034482758619
tp979
a(g8
(g9
(I0
tS'b'
tRp980
(I1
(I3
tg12
I00
(lp981
g98
a(I2
I1
I1
I2
I0
tp982
aF0.7607421875
atbF0.68965517241379315
tp983
a(g8
(g9
(I0
tS'b'
tRp984
(I1
(I3
tg12
I00
(lp985
(I1
I0
I0
I2
I2
tp986
a(I2
I2
I0
I0
I0
tp987
aF0.42499999999999999
atbF0.61290322580645162
tp988
a(g8
(g9
(I0
tS'b'
tRp989
(I1
(I3
tg12
I00
(lp990
g316
a(I2
I0
I1
I1
I1
tp991
aF0.65937500000000004
atbF0.23076923076923078
tp992
a(g8
(g9
(I0
tS'b'
tRp993
(I1
(I3
tg12
I00
(lp994
g163
a(I1
I1
I1
I0
I0
tp995
aF-0.03125
atbF0.36666666666666664
tp996
a(g8
(g9
(I0
tS'b'
tRp997
(I1
(I3
tg12
I00
(lp998
g151
ag239
aF0.65937500000000004
atbF0.23333333333333334
tp999
a(g8
(g9
(I0
tS'b'
tRp1000
(I1
(I3
tg12
I00
(lp1001
g223
a(I1
I2
I2
I1
I0
tp1002
aF0.2373046875
atbF0.5714285714285714
tp1003
a(g8
(g9
(I0
tS'b'
tRp1004
(I1
(I3
tg12
I00
(lp1005
g969
a(I0
I2
I2
I2
I2
tp1006
aF0.25572916666666667
atbF0.53846153846153844
tp1007
a(g8
(g9
(I0
tS'b'
tRp1008
(I1
(I3
tg12
I00
(lp1009
g949
ag982
aF0.353515625
atbF0.40000000000000002
tp1010
a(g8
(g9
(I0
tS'b'
tRp1011
(I1
(I3
tg12
I00
(lp1012
g291
ag127
aF0.24062499999999998
atbF0.39285714285714285
tp1013
a(g8
(g9
(I0
tS'b'
tRp1014
(I1
(I3
tg12
I00
(lp1015
g278
a(I1
I2
I1
I1
I0
tp1016
aF0.25566406250000001
atbF0.25925925925925924
tp1017
a(g8
(g9
(I0
tS'b'
tRp1018
(I1
(I3
tg12
I00
(lp1019
g140
ag35
aF-0.43489583333333337
atbF0.30303030303030304
tp1020
a(g8
(g9
(I0
tS'b'
tRp1021
(I1
(I3
tg12
I00
(lp1022
(I1
I2
I1
I2
I1
tp1023
ag982
aF0.24824218750000004
atbF0.5
tp1024
a(g8
(g9
(I0
tS'b'
tRp1025
(I1
(I3
tg12
I00
(lp1026
g353
a(I1
I1
I2
I0
I0
tp1027
aF-0.33710937500000004
atbF0.53846153846153844
tp1028
a(g8
(g9
(I0
tS'b'
tRp1029
(I1
(I3
tg12
I00
(lp1030
(I1
I2
I2
I0
I2
tp1031
a(I1
I0
I0
I0
I0
tp1032
aF-0.33515625000000004
atbF0.40000000000000002
tp1033
a(g8
(g9
(I0
tS'b'
tRp1034
(I1
(I3
tg12
I00
(lp1035
g365
ag451
aF0.23359374999999999
atbF0.44444444444444442
tp1036
a(g8
(g9
(I0
tS'b'
tRp1037
(I1
(I3
tg12
I00
(lp1038
g169
ag1023
aF0.0017578124999999556
atbF0.41666666666666669
tp1039
a(g8
(g9
(I0
tS'b'
tRp1040
(I1
(I3
tg12
I00
(lp1041
g495
ag251
aF0.14296875000000001
atbF0.19230769230769232
tp1042
a(g8
(g9
(I0
tS'b'
tRp1043
(I1
(I3
tg12
I00
(lp1044
g53
ag856
aF0.61015624999999996
atbF0.40625
tp1045
a(g8
(g9
(I0
tS'b'
tRp1046
(I1
(I3
tg12
I00
(lp1047
g14
a(I1
I2
I1
I0
I2
tp1048
aF0.095312500000000022
atbF0.65384615384615385
tp1049
a(g8
(g9
(I0
tS'b'
tRp1050
(I1
(I3
tg12
I00
(lp1051
(I2
I0
I0
I2
I2
tp1052
ag991
aF-0.016666666666666607
atbF0.80645161290322576
tp1053
a(g8
(g9
(I0
tS'b'
tRp1054
(I1
(I3
tg12
I00
(lp1055
(I1
I1
I2
I2
I0
tp1056
ag262
aF-0.13886718749999999
atbF0.25
tp1057
a(g8
(g9
(I0
tS'b'
tRp1058
(I1
(I3
tg12
I00
(lp1059
(I0
I2
I1
I2
I1
tp1060
ag905
aF0.0080729166666667074
atbF0.60606060606060608
tp1061
a(g8
(g9
(I0
tS'b'
tRp1062
(I1
(I3
tg12
I00
(lp1063
g285
a(I2
I2
I2
I1
I0
tp1064
aF0.6728515625
atbF0.58620689655172409
tp1065
a(g8
(g9
(I0
tS'b'
tRp1066
(I1
(I3
tg12
I00
(lp1067
(I0
I1
I0
I0
I1
tp1068
ag884
aF0.42031249999999998
atbF0.41666666666666669
tp1069
a(g8
(g9
(I0
tS'b'
tRp1070
(I1
(I3
tg12
I00
(lp1071
g152
ag40
aF0.27500000000000002
atbF0.34782608695652173
tp1072
a(g8
(g9
(I0
tS'b'
tRp1073
(I1
(I3
tg12
I00
(lp1074
g334
a(I1
I1
I2
I1
I2
tp1075
aF-0.35332031249999996
atbF0.5357142857142857
tp1076
a(g8
(g9
(I0
tS'b'
tRp1077
(I1
(I3
tg12
I00
(lp1078
g71
ag949
aF0.24576822916666669
atbF0.31034482758620691
tp1079
a(g8
(g9
(I0
tS'b'
tRp1080
(I1
(I3
tg12
I00
(lp1081
g500
ag527
aF0.087500000000000022
atbF0.53125
tp1082
a(g8
(g9
(I0
tS'b'
tRp1083
(I1
(I3
tg12
I00
(lp1084
g450
a(I0
I1
I2
I2
I2
tp1085
aF-0.0703125
atbF0.75862068965517238
tp1086
a(g8
(g9
(I0
tS'b'
tRp1087
(I1
(I3
tg12
I00
(lp1088
g1027
a(I0
I2
I0
I0
I1
tp1089
aF-0.096874999999999989
atbF0.5
tp1090
a(g8
(g9
(I0
tS'b'
tRp1091
(I1
(I3
tg12
I00
(lp1092
g316
a(I1
I0
I0
I1
I0
tp1093
aF0.16666666666666669
atbF0.44
tp1094
a(g8
(g9
(I0
tS'b'
tRp1095
(I1
(I3
tg12
I00
(lp1096
g1056
ag1085
aF-0.15605468750000001
atbF0.48148148148148145
tp1097
a(g8
(g9
(I0
tS'b'
tRp1098
(I1
(I3
tg12
I00
(lp1099
(I0
I0
I1
I2
I1
tp1100
ag962
aF0.54166666666666674
atbF0.44827586206896552
tp1101
a(g8
(g9
(I0
tS'b'
tRp1102
(I1
(I3
tg12
I00
(lp1103
g146
ag527
aF-0.37890625
atbF0.26923076923076922
tp1104
a(g8
(g9
(I0
tS'b'
tRp1105
(I1
(I3
tg12
I00
(lp1106
g64
a(I2
I1
I0
I2
I1
tp1107
aF0.24062499999999998
atbF0.5357142857142857
tp1108
a(g8
(g9
(I0
tS'b'
tRp1109
(I1
(I3
tg12
I00
(lp1110
g104
a(I0
I0
I2
I1
I0
tp1111
aF-0.59609374999999998
atbF0.41935483870967744
tp1112
a(g8
(g9
(I0
tS'b'
tRp1113
(I1
(I3
tg12
I00
(lp1114
g316
a(I0
I1
I0
I0
I0
tp1115
aF-0.0052083333333333148
atbF0.5714285714285714
tp1116
a(g8
(g9
(I0
tS'b'
tRp1117
(I1
(I3
tg12
I00
(lp1118
g139
ag22
aF-0.71608072916666665
atbF0.6333333333333333
tp1119
a(g8
(g9
(I0
tS'b'
tRp1120
(I1
(I3
tg12
I00
(lp1121
g522
ag365
aF-0.17421874999999998
atbF0.2857142857142857
tp1122
a(g8
(g9
(I0
tS'b'
tRp1123
(I1
(I3
tg12
I00
(lp1124
g23
ag256
aF-0.01790364583333337
atbF0.6875
tp1125
a(g8
(g9
(I0
tS'b'
tRp1126
(I1
(I3
tg12
I00
(lp1127
g127
a(I1
I0
I1
I0
I0
tp1128
aF-0.49687499999999996
atbF0.5
tp1129
a(g8
(g9
(I0
tS'b'
tRp1130
(I1
(I3
tg12
I00
(lp1131
g128
ag92
aF-0.38124999999999998
atbF0.68965517241379315
tp1132
a(g8
(g9
(I0
tS'b'
tRp1133
(I1
(I3
tg12
I00
(lp1134
g370
ag133
aF-0.075000000000000011
atbF0.45454545454545453
tp1135
a(g8
(g9
(I0
tS'b'
tRp1136
(I1
(I3
tg12
I00
(lp1137
g285
ag34
aF0.22499999999999998
atbF0.4375
tp1138
a(g8
(g9
(I0
tS'b'
tRp1139
(I1
(I3
tg12
I00
(lp1140
g1060
ag23
aF0.41562500000000008
atbF0.62068965517241381
tp1141
a(g8
(g9
(I0
tS'b'
tRp1142
(I1
(I3
tg12
I00
(lp1143
(I2
I2
I0
I0
I2
tp1144
ag175
aF-0.44140625
atbF0.44827586206896552
tp1145
a(g8
(g9
(I0
tS'b'
tRp1146
(I1
(I3
tg12
I00
(lp1147
g950
a(I2
I2
I0
I1
I0
tp1148
aF0.39921875000000001
atbF0.44827586206896552
tp1149
a(g8
(g9
(I0
tS'b'
tRp1150
(I1
(I3
tg12
I00
(lp1151
(I1
I2
I0
I0
I2
tp1152
a(I2
I1
I1
I1
I1
tp1153
aF0.25156250000000002
atbF0.6333333333333333
tp1154
a(g8
(g9
(I0
tS'b'
tRp1155
(I1
(I3
tg12
I00
(lp1156
g440
ag217
aF0.35677083333333337
atbF0.73333333333333328
tp1157
a(g8
(g9
(I0
tS'b'
tRp1158
(I1
(I3
tg12
I00
(lp1159
(I1
I1
I0
I1
I2
tp1160
ag76
aF-0.094531250000000011
atbF0.65384615384615385
tp1161
a(g8
(g9
(I0
tS'b'
tRp1162
(I1
(I3
tg12
I00
(lp1163
g97
ag1023
aF-0.26132812500000002
atbF0.35714285714285715
tp1164
a(g8
(g9
(I0
tS'b'
tRp1165
(I1
(I3
tg12
I00
(lp1166
g234
ag995
aF-0.40625
atbF0.48148148148148145
tp1167
a(g8
(g9
(I0
tS'b'
tRp1168
(I1
(I3
tg12
I00
(lp1169
g87
ag1085
aF-0.024218750000000011
atbF0.45454545454545453
tp1170
a(g8
(g9
(I0
tS'b'
tRp1171
(I1
(I3
tg12
I00
(lp1172
(I0
I1
I2
I0
I0
tp1173
ag370
aF0.13750000000000001
atbF0.47999999999999998
tp1174
a(g8
(g9
(I0
tS'b'
tRp1175
(I1
(I3
tg12
I00
(lp1176
g958
ag14
aF-0.38359374999999996
atbF0.57692307692307687
tp1177
a(g8
(g9
(I0
tS'b'
tRp1178
(I1
(I3
tg12
I00
(lp1179
g190
a(I0
I1
I2
I0
I1
tp1180
aF-0.25156250000000002
atbF0.4642857142857143
tp1181
a(g8
(g9
(I0
tS'b'
tRp1182
(I1
(I3
tg12
I00
(lp1183
(I1
I2
I0
I2
I0
tp1184
a(I0
I1
I1
I0
I1
tp1185
aF-0.35078124999999999
atbF0.41935483870967744
tp1186
a(g8
(g9
(I0
tS'b'
tRp1187
(I1
(I3
tg12
I00
(lp1188
(I2
I0
I2
I2
I1
tp1189
ag949
aF-0.35527343749999996
atbF0.29999999999999999
tp1190
a(g8
(g9
(I0
tS'b'
tRp1191
(I1
(I3
tg12
I00
(lp1192
g394
ag15
aF0.04296875
atbF0.35999999999999999
tp1193
a(g8
(g9
(I0
tS'b'
tRp1194
(I1
(I3
tg12
I00
(lp1195
g328
a(I1
I1
I2
I2
I1
tp1196
aF-0.028125000000000067
atbF0.33333333333333331
tp1197
a(g8
(g9
(I0
tS'b'
tRp1198
(I1
(I3
tg12
I00
(lp1199
g888
ag937
aF0.69999999999999996
atbF0.48484848484848486
tp1200
a(g8
(g9
(I0
tS'b'
tRp1201
(I1
(I3
tg12
I00
(lp1202
g1052
ag958
aF0.049999999999999933
atbF0.83333333333333337
tp1203
a(g8
(g9
(I0
tS'b'
tRp1204
(I1
(I3
tg12
I00
(lp1205
g982
ag151
aF-0.62324218750000004
atbF0.38709677419354838
tp1206
a(g8
(g9
(I0
tS'b'
tRp1207
(I1
(I3
tg12
I00
(lp1208
g1153
a(I2
I0
I2
I2
I2
tp1209
aF0.015625
atbF0.54838709677419351
tp1210
a(g8
(g9
(I0
tS'b'
tRp1211
(I1
(I3
tg12
I00
(lp1212
g316
ag228
aF0.26979166666666671
atbF0.42857142857142855
tp1213
a(g8
(g9
(I0
tS'b'
tRp1214
(I1
(I3
tg12
I00
(lp1215
g128
ag505
aF0.043750000000000011
atbF0.53846153846153844
tp1216
a(g8
(g9
(I0
tS'b'
tRp1217
(I1
(I3
tg12
I00
(lp1218
(I1
I2
I0
I1
I2
tp1219
ag76
aF-0.21640625000000002
atbF0.59259259259259256
tp1220
asg540
(lp1221
(g850
F0.54285714285714282
tp1222
a(g853
F0
tp1223
a(g858
F1
tp1224
a(g862
F1
tp1225
a(g866
F0
tp1226
a(g870
F1
tp1227
a(g873
F1
tp1228
a(g877
F0.45714285714285713
tp1229
a(g882
F1
tp1230
a(g886
F0
tp1231
a(g890
F0.48571428571428571
tp1232
a(g893
F1
tp1233
a(g897
F0.48571428571428571
tp1234
a(g900
F0.20000000000000001
tp1235
a(g903
F0
tp1236
a(g907
F0.48571428571428571
tp1237
a(g910
F0
tp1238
a(g914
F0.2857142857142857
tp1239
a(g919
F0.54285714285714282
tp1240
a(g923
F0.74285714285714288
tp1241
a(g926
F0
tp1242
a(g930
F0.82857142857142863
tp1243
a(g935
F1
tp1244
a(g939
F1
tp1245
a(g944
F0
tp1246
a(g947
F1
tp1247
a(g952
F1
tp1248
a(g956
F0
tp1249
a(g960
F0.77142857142857146
tp1250
a(g964
F0
tp1251
a(g967
F1
tp1252
a(g972
F0
tp1253
a(g976
F0.82857142857142863
tp1254
a(g980
F1
tp1255
a(g984
F1
tp1256
a(g989
F0.42857142857142855
tp1257
a(g993
F0.42857142857142855
tp1258
a(g997
F0.31428571428571428
tp1259
a(g1000
F1
tp1260
a(g1004
F1
tp1261
a(g1008
F1
tp1262
a(g1011
F0
tp1263
a(g1014
F0
tp1264
a(g1018
F0
tp1265
a(g1021
F1
tp1266
a(g1025
F0
tp1267
a(g1029
F0
tp1268
a(g1034
F0.42857142857142855
tp1269
a(g1037
F1
tp1270
a(g1040
F0
tp1271
a(g1043
F1
tp1272
a(g1046
F0.68571428571428572
tp1273
a(g1050
F1
tp1274
a(g1054
F0
tp1275
a(g1058
F1
tp1276
a(g1062
F1
tp1277
a(g1066
F0.48571428571428571
tp1278
a(g1070
F0.51428571428571423
tp1279
a(g1073
F0.40000000000000002
tp1280
a(g1077
F0.2857142857142857
tp1281
a(g1080
F0
tp1282
a(g1083
F0.54285714285714282
tp1283
a(g1087
F0
tp1284
a(g1091
F0.58823529411764708
tp1285
a(g1095
F0.11428571428571428
tp1286
a(g1098
F0.45714285714285713
tp1287
a(g1102
F0
tp1288
a(g1105
F1
tp1289
a(g1109
F0
tp1290
a(g1113
F0.58823529411764708
tp1291
a(g1117
F0
tp1292
a(g1120
F0
tp1293
a(g1123
F1
tp1294
a(g1126
F0.54285714285714282
tp1295
a(g1130
F0
tp1296
a(g1133
F0
tp1297
a(g1136
F0.31428571428571428
tp1298
a(g1139
F1
tp1299
a(g1142
F0.77142857142857146
tp1300
a(g1146
F0
tp1301
a(g1150
F1
tp1302
a(g1155
F1
tp1303
a(g1158
F0.45714285714285713
tp1304
a(g1162
F0
tp1305
a(g1165
F0
tp1306
a(g1168
F1
tp1307
a(g1171
F0
tp1308
a(g1175
F1
tp1309
a(g1178
F0.31428571428571428
tp1310
a(g1182
F0
tp1311
a(g1187
F0.34285714285714286
tp1312
a(g1191
F0
tp1313
a(g1194
F0.48571428571428571
tp1314
a(g1198
F1
tp1315
a(g1201
F1
tp1316
a(g1204
F0
tp1317
a(g1207
F0
tp1318
a(g1211
F0.48571428571428571
tp1319
a(g1214
F0.48571428571428571
tp1320
a(g1217
F0.2857142857142857
tp1321
assg642
(dp1322
g6
(lp1323
(g850
F0.59999999999999998
tp1324
a(g853
F0.5
tp1325
a(g858
F0.47619047619047616
tp1326
a(g862
F0.42105263157894735
tp1327
a(g866
F0.40909090909090912
tp1328
a(g870
F0.44444444444444442
tp1329
a(g873
F0.43478260869565216
tp1330
a(g877
F0.63636363636363635
tp1331
a(g882
F0.47619047619047616
tp1332
a(g886
F0.34782608695652173
tp1333
a(g890
F0.44444444444444442
tp1334
a(g893
F0.375
tp1335
a(g897
F0.33333333333333331
tp1336
a(g900
F0.56521739130434778
tp1337
a(g903
F0.59090909090909094
tp1338
a(g907
F0.59259259259259256
tp1339
a(g910
F0.5
tp1340
a(g914
F0.47619047619047616
tp1341
a(g919
F0.5
tp1342
a(g923
F0.45833333333333331
tp1343
a(g926
F0.44
tp1344
a(g930
F0.47619047619047616
tp1345
a(g935
F0.58823529411764708
tp1346
a(g939
F0.68421052631578949
tp1347
a(g944
F0.33333333333333331
tp1348
a(g947
F0.40909090909090912
tp1349
a(g952
F0.40909090909090912
tp1350
a(g956
F0.52941176470588236
tp1351
a(g960
F0.43478260869565216
tp1352
a(g964
F0.5
tp1353
a(g967
F0.5
tp1354
a(g972
F0.56521739130434778
tp1355
a(g976
F0.63157894736842102
tp1356
a(g980
F0.42857142857142855
tp1357
a(g984
F0.52000000000000002
tp1358
a(g989
F0.3125
tp1359
a(g993
F0.46153846153846156
tp1360
a(g997
F0.44444444444444442
tp1361
a(g1000
F0.38095238095238093
tp1362
a(g1004
F0.56521739130434778
tp1363
a(g1008
F0.52173913043478259
tp1364
a(g1011
F0.42857142857142855
tp1365
a(g1014
F0.39130434782608697
tp1366
a(g1018
F0.52631578947368418
tp1367
a(g1021
F0.66666666666666663
tp1368
a(g1025
F0.54545454545454541
tp1369
a(g1029
F0.27777777777777779
tp1370
a(g1034
F0.625
tp1371
a(g1037
F0.63157894736842102
tp1372
a(g1040
F0.43478260869565216
tp1373
a(g1043
F0.43478260869565216
tp1374
a(g1046
F0.66666666666666663
tp1375
a(g1050
F0.42857142857142855
tp1376
a(g1054
F0.68000000000000005
tp1377
a(g1058
F0.38095238095238093
tp1378
a(g1062
F0.58333333333333337
tp1379
a(g1066
F0.42857142857142855
tp1380
a(g1070
F0.66666666666666663
tp1381
a(g1073
F0.54166666666666663
tp1382
a(g1077
F0.54545454545454541
tp1383
a(g1080
F0.57894736842105265
tp1384
a(g1083
F0.44
tp1385
a(g1087
F0.59999999999999998
tp1386
a(g1091
F0.61111111111111116
tp1387
a(g1095
F0.5
tp1388
a(g1098
F0.42857142857142855
tp1389
a(g1102
F0.46153846153846156
tp1390
a(g1105
F0.56521739130434778
tp1391
a(g1109
F0.55555555555555558
tp1392
a(g1113
F0.57894736842105265
tp1393
a(g1117
F0.5
tp1394
a(g1120
F0.5
tp1395
a(g1123
F0.59999999999999998
tp1396
a(g1126
F0.63157894736842102
tp1397
a(g1130
F0.45833333333333331
tp1398
a(g1133
F0.46666666666666667
tp1399
a(g1136
F0.5625
tp1400
a(g1139
F0.42307692307692307
tp1401
a(g1142
F0.56000000000000005
tp1402
a(g1146
F0.33333333333333331
tp1403
a(g1150
F0.45833333333333331
tp1404
a(g1155
F0.47368421052631576
tp1405
a(g1158
F0.35999999999999999
tp1406
a(g1162
F0.34782608695652173
tp1407
a(g1165
F0.26315789473684209
tp1408
a(g1168
F0.42105263157894735
tp1409
a(g1171
F0.5
tp1410
a(g1175
F0.43478260869565216
tp1411
a(g1178
F0.52631578947368418
tp1412
a(g1182
F0.42857142857142855
tp1413
a(g1187
F0.54166666666666663
tp1414
a(g1191
F0.38095238095238093
tp1415
a(g1194
F0.47826086956521741
tp1416
a(g1198
F0.31578947368421051
tp1417
a(g1201
F0.40000000000000002
tp1418
a(g1204
F0.53846153846153844
tp1419
a(g1207
F0.5
tp1420
a(g1211
F0.5714285714285714
tp1421
a(g1214
F0.65384615384615385
tp1422
a(g1217
F0.5
tp1423
asg540
(lp1424
(g850
F0.80000000000000004
tp1425
a(g853
F0.5
tp1426
a(g858
F0.92592592592592593
tp1427
a(g862
F0.5357142857142857
tp1428
a(g866
F0.5714285714285714
tp1429
a(g870
F0
tp1430
a(g873
F0.5714285714285714
tp1431
a(g877
F0.33333333333333331
tp1432
a(g882
F1
tp1433
a(g886
F0
tp1434
a(g890
F0.967741935483871
tp1435
a(g893
F0.35483870967741937
tp1436
a(g897
F0
tp1437
a(g900
F0.6071428571428571
tp1438
a(g903
F0.15789473684210525
tp1439
a(g907
F0.17241379310344829
tp1440
a(g910
F0.10000000000000001
tp1441
a(g914
F0.55172413793103448
tp1442
a(g919
F0.60606060606060608
tp1443
a(g923
F0.91666666666666663
tp1444
a(g926
F1
tp1445
a(g930
F0.625
tp1446
a(g935
F0.5
tp1447
a(g939
F1
tp1448
a(g944
F0.14285714285714285
tp1449
a(g947
F0.70370370370370372
tp1450
a(g952
F0.91304347826086951
tp1451
a(g956
F0.90909090909090906
tp1452
a(g960
F0.37931034482758619
tp1453
a(g964
F1
tp1454
a(g967
F1
tp1455
a(g972
F0.13793103448275862
tp1456
a(g976
F0.8928571428571429
tp1457
a(g980
F1
tp1458
a(g984
F0.68965517241379315
tp1459
a(g989
F0.967741935483871
tp1460
a(g993
F0.76923076923076927
tp1461
a(g997
F1
tp1462
a(g1000
F0.68965517241379315
tp1463
a(g1004
F1
tp1464
a(g1008
F0.93103448275862066
tp1465
a(g1011
F0.88888888888888884
tp1466
a(g1014
F0.81481481481481477
tp1467
a(g1018
F0.20689655172413793
tp1468
a(g1021
F0.52000000000000002
tp1469
a(g1025
F0.48275862068965519
tp1470
a(g1029
F0.14285714285714285
tp1471
a(g1034
F0.75862068965517238
tp1472
a(g1037
F0.20000000000000001
tp1473
a(g1040
F1
tp1474
a(g1043
F1
tp1475
a(g1046
F0.54545454545454541
tp1476
a(g1050
F0.80000000000000004
tp1477
a(g1054
F0.34482758620689657
tp1478
a(g1058
F0.19230769230769232
tp1479
a(g1062
F1
tp1480
a(g1066
F1
tp1481
a(g1070
F0.93103448275862066
tp1482
a(g1073
F0.42857142857142855
tp1483
a(g1077
F0.81481481481481477
tp1484
a(g1080
F0.31578947368421051
tp1485
a(g1083
F0.54166666666666663
tp1486
a(g1087
F0.38461538461538464
tp1487
a(g1091
F0.60869565217391308
tp1488
a(g1095
F0.15384615384615385
tp1489
a(g1098
F0.76666666666666672
tp1490
a(g1102
F0
tp1491
a(g1105
F0.88888888888888884
tp1492
a(g1109
F0
tp1493
a(g1113
F0.39130434782608697
tp1494
a(g1117
F0
tp1495
a(g1120
F0.29629629629629628
tp1496
a(g1123
F0.095238095238095233
tp1497
a(g1126
F0.033333333333333333
tp1498
a(g1130
F0
tp1499
a(g1133
F0
tp1500
a(g1136
F0.80000000000000004
tp1501
a(g1139
F0.96551724137931039
tp1502
a(g1142
F0.037037037037037035
tp1503
a(g1146
F0.90625
tp1504
a(g1150
F0.83870967741935487
tp1505
a(g1155
F0.77777777777777779
tp1506
a(g1158
F0.5357142857142857
tp1507
a(g1162
F0.5
tp1508
a(g1165
F0.38461538461538464
tp1509
a(g1168
F0.41379310344827586
tp1510
a(g1171
F1
tp1511
a(g1175
F0
tp1512
a(g1178
F0.23076923076923078
tp1513
a(g1182
F0.12
tp1514
a(g1187
F0.038461538461538464
tp1515
a(g1191
F0.22222222222222221
tp1516
a(g1194
F0.40000000000000002
tp1517
a(g1198
F1
tp1518
a(g1201
F0.17391304347826086
tp1519
a(g1204
F0
tp1520
a(g1207
F0.9285714285714286
tp1521
a(g1211
F0.73333333333333328
tp1522
a(g1214
F0.65517241379310343
tp1523
a(g1217
F0.32000000000000001
tp1524
asssS'RBP'
p1525
(dp1526
g4
(dp1527
g6
(lp1528
(g8
(g9
(I0
tS'b'
tRp1529
(I1
(I3
tg12
I00
(lp1530
g82
ag905
aF0.03167999999999993
atbF0.48148148148148145
tp1531
a(g8
(g9
(I0
tS'b'
tRp1532
(I1
(I3
tg12
I00
(lp1533
g958
a(I2
I1
I1
I0
I2
tp1534
aF-0.15488000000000002
atbF0.52000000000000002
tp1535
a(g8
(g9
(I0
tS'b'
tRp1536
(I1
(I3
tg12
I00
(lp1537
g987
ag987
aF0
atbF0.58620689655172409
tp1538
a(g8
(g9
(I0
tS'b'
tRp1539
(I1
(I3
tg12
I00
(lp1540
g190
ag1023
aF0.046079999999999899
atbF0.40740740740740738
tp1541
a(g8
(g9
(I0
tS'b'
tRp1542
(I1
(I3
tg12
I00
(lp1543
g164
a(I1
I2
I2
I1
I2
tp1544
aF0.53983999999999999
atbF0.42857142857142855
tp1545
a(g8
(g9
(I0
tS'b'
tRp1546
(I1
(I3
tg12
I00
(lp1547
g1189
ag348
aF-0.4383999999999999
atbF0.44444444444444442
tp1548
a(g8
(g9
(I0
tS'b'
tRp1549
(I1
(I3
tg12
I00
(lp1550
g256
ag296
aF-0.16415999999999997
atbF0.45161290322580644
tp1551
a(g8
(g9
(I0
tS'b'
tRp1552
(I1
(I3
tg12
I00
(lp1553
(I1
I2
I1
I0
I0
tp1554
ag92
aF-0.64799999999999991
atbF0.57692307692307687
tp1555
a(g8
(g9
(I0
tS'b'
tRp1556
(I1
(I3
tg12
I00
(lp1557
g1048
ag311
aF-0.021440000000000126
atbF0.51851851851851849
tp1558
a(g8
(g9
(I0
tS'b'
tRp1559
(I1
(I3
tg12
I00
(lp1560
(I0
I2
I2
I2
I0
tp1561
ag353
aF0.17343999999999993
atbF0.4642857142857143
tp1562
a(g8
(g9
(I0
tS'b'
tRp1563
(I1
(I3
tg12
I00
(lp1564
g92
ag1016
aF0.75039999999999984
atbF0.23076923076923078
tp1565
a(g8
(g9
(I0
tS'b'
tRp1566
(I1
(I3
tg12
I00
(lp1567
g1107
ag139
aF0.1740799999999999
atbF0.5161290322580645
tp1568
a(g8
(g9
(I0
tS'b'
tRp1569
(I1
(I3
tg12
I00
(lp1570
g46
ag65
aF-0.16384000000000004
atbF0.59999999999999998
tp1571
a(g8
(g9
(I0
tS'b'
tRp1572
(I1
(I3
tg12
I00
(lp1573
g1209
ag297
aF-0.12672000000000017
atbF0.43333333333333335
tp1574
a(g8
(g9
(I0
tS'b'
tRp1575
(I1
(I3
tg12
I00
(lp1576
(I2
I0
I2
I1
I2
tp1577
a(I2
I2
I1
I0
I2
tp1578
aF0.089600000000000013
atbF0.37037037037037035
tp1579
a(g8
(g9
(I0
tS'b'
tRp1580
(I1
(I3
tg12
I00
(lp1581
g426
ag354
aF-0.12319999999999998
atbF0.65517241379310343
tp1582
a(g8
(g9
(I0
tS'b'
tRp1583
(I1
(I3
tg12
I00
(lp1584
g937
ag1189
aF0.54271999999999998
atbF0.375
tp1585
a(g8
(g9
(I0
tS'b'
tRp1586
(I1
(I3
tg12
I00
(lp1587
g163
ag157
aF0.11711999999999978
atbF0.5
tp1588
a(g8
(g9
(I0
tS'b'
tRp1589
(I1
(I3
tg12
I00
(lp1590
g306
a(I1
I0
I2
I0
I2
tp1591
aF-0.15007999999999988
atbF0.2857142857142857
tp1592
a(g8
(g9
(I0
tS'b'
tRp1593
(I1
(I3
tg12
I00
(lp1594
g127
a(I1
I2
I2
I2
I1
tp1595
aF0.33887999999999996
atbF0.23999999999999999
tp1596
a(g8
(g9
(I0
tS'b'
tRp1597
(I1
(I3
tg12
I00
(lp1598
(I1
I0
I1
I2
I2
tp1599
ag158
aF-0.21472000000000013
atbF0.22222222222222221
tp1600
a(g8
(g9
(I0
tS'b'
tRp1601
(I1
(I3
tg12
I00
(lp1602
g52
ag22
aF-0.48799999999999988
atbF0.5
tp1603
a(g8
(g9
(I0
tS'b'
tRp1604
(I1
(I3
tg12
I00
(lp1605
g987
ag297
aF0.17791999999999997
atbF0.65217391304347827
tp1606
a(g8
(g9
(I0
tS'b'
tRp1607
(I1
(I3
tg12
I00
(lp1608
g394
ag353
aF0.39424000000000003
atbF0.5
tp1609
a(g8
(g9
(I0
tS'b'
tRp1610
(I1
(I3
tg12
I00
(lp1611
g440
ag486
aF0.26783999999999986
atbF0.375
tp1612
a(g8
(g9
(I0
tS'b'
tRp1613
(I1
(I3
tg12
I00
(lp1614
g1064
ag912
aF-0.31360000000000021
atbF0.75
tp1615
a(g8
(g9
(I0
tS'b'
tRp1616
(I1
(I3
tg12
I00
(lp1617
g1016
ag1052
aF0.018240000000000034
atbF0.5161290322580645
tp1618
a(g8
(g9
(I0
tS'b'
tRp1619
(I1
(I3
tg12
I00
(lp1620
g327
ag211
aF-0.47807999999999973
atbF0.5
tp1621
a(g8
(g9
(I0
tS'b'
tRp1622
(I1
(I3
tg12
I00
(lp1623
g296
ag262
aF-0.31231999999999999
atbF0.40000000000000002
tp1624
a(g8
(g9
(I0
tS'b'
tRp1625
(I1
(I3
tg12
I00
(lp1626
g932
ag1173
aF0.10367999999999994
atbF0.37037037037037035
tp1627
a(g8
(g9
(I0
tS'b'
tRp1628
(I1
(I3
tg12
I00
(lp1629
g267
ag522
aF-0.32800000000000001
atbF0.59259259259259256
tp1630
a(g8
(g9
(I0
tS'b'
tRp1631
(I1
(I3
tg12
I00
(lp1632
g134
a(I2
I2
I0
I1
I2
tp1633
aF0.072000000000000064
atbF0.55555555555555558
tp1634
a(g8
(g9
(I0
tS'b'
tRp1635
(I1
(I3
tg12
I00
(lp1636
g451
ag440
aF-0.081920000000000104
atbF0.27586206896551724
tp1637
a(g8
(g9
(I0
tS'b'
tRp1638
(I1
(I3
tg12
I00
(lp1639
g216
ag35
aF0.051839999999999997
atbF0.37931034482758619
tp1640
a(g8
(g9
(I0
tS'b'
tRp1641
(I1
(I3
tg12
I00
(lp1642
g1128
ag527
aF0.248
atbF0.52000000000000002
tp1643
a(g8
(g9
(I0
tS'b'
tRp1644
(I1
(I3
tg12
I00
(lp1645
g175
ag879
aF0.32672000000000001
atbF0.40740740740740738
tp1646
a(g8
(g9
(I0
tS'b'
tRp1647
(I1
(I3
tg12
I00
(lp1648
g451
ag409
aF0.44832000000000005
atbF0.37931034482758619
tp1649
a(g8
(g9
(I0
tS'b'
tRp1650
(I1
(I3
tg12
I00
(lp1651
g958
ag928
aF-0.16639999999999999
atbF0.2857142857142857
tp1652
a(g8
(g9
(I0
tS'b'
tRp1653
(I1
(I3
tg12
I00
(lp1654
g239
ag888
aF-0.89407999999999999
atbF0.38461538461538464
tp1655
a(g8
(g9
(I0
tS'b'
tRp1656
(I1
(I3
tg12
I00
(lp1657
g1189
ag1189
aF0
atbF0.42857142857142855
tp1658
a(g8
(g9
(I0
tS'b'
tRp1659
(I1
(I3
tg12
I00
(lp1660
g190
ag104
aF0.25119999999999998
atbF0.70370370370370372
tp1661
a(g8
(g9
(I0
tS'b'
tRp1662
(I1
(I3
tg12
I00
(lp1663
g916
ag445
aF-0.22431999999999996
atbF0.44827586206896552
tp1664
a(g8
(g9
(I0
tS'b'
tRp1665
(I1
(I3
tg12
I00
(lp1666
g986
ag1068
aF-0.32672000000000001
atbF0.65517241379310343
tp1667
a(g8
(g9
(I0
tS'b'
tRp1668
(I1
(I3
tg12
I00
(lp1669
g240
ag365
aF-0.55999999999999994
atbF0.37931034482758619
tp1670
a(g8
(g9
(I0
tS'b'
tRp1671
(I1
(I3
tg12
I00
(lp1672
g58
ag290
aF-1.0579199999999997
atbF0.41935483870967744
tp1673
a(g8
(g9
(I0
tS'b'
tRp1674
(I1
(I3
tg12
I00
(lp1675
g23
ag251
aF-0.3551999999999999
atbF0.44444444444444442
tp1676
a(g8
(g9
(I0
tS'b'
tRp1677
(I1
(I3
tg12
I00
(lp1678
g394
ag500
aF0.14272000000000007
atbF0.51851851851851849
tp1679
a(g8
(g9
(I0
tS'b'
tRp1680
(I1
(I3
tg12
I00
(lp1681
(I0
I0
I0
I1
I2
tp1682
ag262
aF0.17567999999999989
atbF0.42307692307692307
tp1683
a(g8
(g9
(I0
tS'b'
tRp1684
(I1
(I3
tg12
I00
(lp1685
(I2
I2
I1
I2
I0
tp1686
ag1023
aF-0.11807999999999985
atbF0.5357142857142857
tp1687
a(g8
(g9
(I0
tS'b'
tRp1688
(I1
(I3
tg12
I00
(lp1689
(I0
I2
I2
I0
I1
tp1690
ag348
aF-0.15359999999999996
atbF0.64516129032258063
tp1691
a(g8
(g9
(I0
tS'b'
tRp1692
(I1
(I3
tg12
I00
(lp1693
(I0
I0
I2
I2
I0
tp1694
ag364
aF0.26911999999999997
atbF0.42857142857142855
tp1695
a(g8
(g9
(I0
tS'b'
tRp1696
(I1
(I3
tg12
I00
(lp1697
g14
a(I0
I1
I0
I2
I2
tp1698
aF-0.13216000000000006
atbF0.31034482758620691
tp1699
a(g8
(g9
(I0
tS'b'
tRp1700
(I1
(I3
tg12
I00
(lp1701
g905
ag864
aF-0.23039999999999994
atbF0.71999999999999997
tp1702
a(g8
(g9
(I0
tS'b'
tRp1703
(I1
(I3
tg12
I00
(lp1704
g23
ag905
aF-0.16959999999999997
atbF0.44444444444444442
tp1705
a(g8
(g9
(I0
tS'b'
tRp1706
(I1
(I3
tg12
I00
(lp1707
g29
ag905
aF0.087999999999999967
atbF0.6428571428571429
tp1708
a(g8
(g9
(I0
tS'b'
tRp1709
(I1
(I3
tg12
I00
(lp1710
g267
ag87
aF-0.35743999999999992
atbF0.62962962962962965
tp1711
a(g8
(g9
(I0
tS'b'
tRp1712
(I1
(I3
tg12
I00
(lp1713
g98
ag404
aF0.48383999999999999
atbF0.60869565217391308
tp1714
a(g8
(g9
(I0
tS'b'
tRp1715
(I1
(I3
tg12
I00
(lp1716
g174
ag1209
aF0.57279999999999998
atbF0.37931034482758619
tp1717
a(g8
(g9
(I0
tS'b'
tRp1718
(I1
(I3
tg12
I00
(lp1719
g528
ag1016
aF0.094399999999999928
atbF0.5357142857142857
tp1720
a(g8
(g9
(I0
tS'b'
tRp1721
(I1
(I3
tg12
I00
(lp1722
g905
ag267
aF0.14144000000000001
atbF0.40740740740740738
tp1723
a(g8
(g9
(I0
tS'b'
tRp1724
(I1
(I3
tg12
I00
(lp1725
g1698
ag1060
aF0.20608000000000004
atbF0.35483870967741937
tp1726
a(g8
(g9
(I0
tS'b'
tRp1727
(I1
(I3
tg12
I00
(lp1728
g327
ag98
aF-0.55999999999999972
atbF0.18181818181818182
tp1729
a(g8
(g9
(I0
tS'b'
tRp1730
(I1
(I3
tg12
I00
(lp1731
g245
ag354
aF-0.28191999999999995
atbF0.44
tp1732
a(g8
(g9
(I0
tS'b'
tRp1733
(I1
(I3
tg12
I00
(lp1734
g163
ag982
aF0.36799999999999988
atbF0.5
tp1735
a(g8
(g9
(I0
tS'b'
tRp1736
(I1
(I3
tg12
I00
(lp1737
g1561
ag29
aF-0.19040000000000001
atbF0.43333333333333335
tp1738
a(g8
(g9
(I0
tS'b'
tRp1739
(I1
(I3
tg12
I00
(lp1740
g40
ag163
aF-0.1795199999999999
atbF0.51851851851851849
tp1741
a(g8
(g9
(I0
tS'b'
tRp1742
(I1
(I3
tg12
I00
(lp1743
g163
a(I0
I1
I0
I2
I0
tp1744
aF-0.16000000000000009
atbF0.5757575757575758
tp1745
a(g8
(g9
(I0
tS'b'
tRp1746
(I1
(I3
tg12
I00
(lp1747
g41
ag191
aF-0.32287999999999989
atbF0.53846153846153844
tp1748
a(g8
(g9
(I0
tS'b'
tRp1749
(I1
(I3
tg12
I00
(lp1750
g261
ag1544
aF0.36991999999999992
atbF0.6333333333333333
tp1751
a(g8
(g9
(I0
tS'b'
tRp1752
(I1
(I3
tg12
I00
(lp1753
g409
ag157
aF-0.44672000000000023
atbF0.53846153846153844
tp1754
a(g8
(g9
(I0
tS'b'
tRp1755
(I1
(I3
tg12
I00
(lp1756
g995
ag316
aF-0.25760000000000005
atbF0.41379310344827586
tp1757
a(g8
(g9
(I0
tS'b'
tRp1758
(I1
(I3
tg12
I00
(lp1759
g394
ag1209
aF0.46464000000000016
atbF0.75862068965517238
tp1760
a(g8
(g9
(I0
tS'b'
tRp1761
(I1
(I3
tg12
I00
(lp1762
g146
ag311
aF0.031999999999999917
atbF0.52380952380952384
tp1763
a(g8
(g9
(I0
tS'b'
tRp1764
(I1
(I3
tg12
I00
(lp1765
g217
ag164
aF-0.23040000000000016
atbF0.44827586206896552
tp1766
a(g8
(g9
(I0
tS'b'
tRp1767
(I1
(I3
tg12
I00
(lp1768
g317
ag1694
aF-0.55584000000000011
atbF0.37037037037037035
tp1769
a(g8
(g9
(I0
tS'b'
tRp1770
(I1
(I3
tg12
I00
(lp1771
g1578
ag1209
aF0.012800000000000145
atbF0.42857142857142855
tp1772
a(g8
(g9
(I0
tS'b'
tRp1773
(I1
(I3
tg12
I00
(lp1774
(I2
I2
I0
I1
I1
tp1775
ag875
aF0.080319999999999947
atbF0.64000000000000001
tp1776
a(g8
(g9
(I0
tS'b'
tRp1777
(I1
(I3
tg12
I00
(lp1778
g311
ag92
aF-0.79039999999999977
atbF0.60869565217391308
tp1779
a(g8
(g9
(I0
tS'b'
tRp1780
(I1
(I3
tg12
I00
(lp1781
g987
ag1578
aF0.29183999999999999
atbF0.5714285714285714
tp1782
a(g8
(g9
(I0
tS'b'
tRp1783
(I1
(I3
tg12
I00
(lp1784
g1153
a(I2
I1
I2
I2
I1
tp1785
aF0.23039999999999983
atbF0.62962962962962965
tp1786
a(g8
(g9
(I0
tS'b'
tRp1787
(I1
(I3
tg12
I00
(lp1788
g251
ag246
aF0.28703999999999991
atbF0.27586206896551724
tp1789
a(g8
(g9
(I0
tS'b'
tRp1790
(I1
(I3
tg12
I00
(lp1791
g1591
ag53
aF-0.36383999999999994
atbF0.44
tp1792
a(g8
(g9
(I0
tS'b'
tRp1793
(I1
(I3
tg12
I00
(lp1794
g82
ag1196
aF0.25599999999999989
atbF0.5
tp1795
a(g8
(g9
(I0
tS'b'
tRp1796
(I1
(I3
tg12
I00
(lp1797
g139
a(I1
I0
I1
I0
I1
tp1798
aF-0.61087999999999976
atbF0.55555555555555558
tp1799
a(g8
(g9
(I0
tS'b'
tRp1800
(I1
(I3
tg12
I00
(lp1801
g115
ag1027
aF0.073279999999999901
atbF0.46666666666666667
tp1802
a(g8
(g9
(I0
tS'b'
tRp1803
(I1
(I3
tg12
I00
(lp1804
g1798
ag35
aF0.2723199999999999
atbF0.40000000000000002
tp1805
a(g8
(g9
(I0
tS'b'
tRp1806
(I1
(I3
tg12
I00
(lp1807
g1115
ag284
aF0.65599999999999992
atbF0.19230769230769232
tp1808
a(g8
(g9
(I0
tS'b'
tRp1809
(I1
(I3
tg12
I00
(lp1810
(I0
I1
I1
I2
I2
tp1811
ag163
aF-0.13183999999999996
atbF0.34375
tp1812
a(g8
(g9
(I0
tS'b'
tRp1813
(I1
(I3
tg12
I00
(lp1814
g354
ag1534
aF0.44703999999999988
atbF0.75757575757575757
tp1815
a(g8
(g9
(I0
tS'b'
tRp1816
(I1
(I3
tg12
I00
(lp1817
g234
ag527
aF-0.11199999999999988
atbF0.68965517241379315
tp1818
a(g8
(g9
(I0
tS'b'
tRp1819
(I1
(I3
tg12
I00
(lp1820
g133
ag53
aF-0.063999999999999946
atbF0.51724137931034486
tp1821
a(g8
(g9
(I0
tS'b'
tRp1822
(I1
(I3
tg12
I00
(lp1823
g103
a(I0
I2
I0
I1
I0
tp1824
aF-0.72223999999999999
atbF0.55172413793103448
tp1825
a(g8
(g9
(I0
tS'b'
tRp1826
(I1
(I3
tg12
I00
(lp1827
g98
ag1016
aF0.6479999999999998
atbF0.55172413793103448
tp1828
a(g8
(g9
(I0
tS'b'
tRp1829
(I1
(I3
tg12
I00
(lp1830
(I1
I0
I2
I2
I2
tp1831
ag451
aF-0.18431999999999993
atbF0.65517241379310343
tp1832
a(g8
(g9
(I0
tS'b'
tRp1833
(I1
(I3
tg12
I00
(lp1834
g121
ag22
aF-0.6479999999999998
atbF0.14814814814814814
tp1835
a(g8
(g9
(I0
tS'b'
tRp1836
(I1
(I3
tg12
I00
(lp1837
g451
ag40
aF0.063999999999999946
atbF0.25925925925925924
tp1838
a(g8
(g9
(I0
tS'b'
tRp1839
(I1
(I3
tg12
I00
(lp1840
g440
ag133
aF-0.23839999999999995
atbF0.2857142857142857
tp1841
a(g8
(g9
(I0
tS'b'
tRp1842
(I1
(I3
tg12
I00
(lp1843
g128
ag986
aF0.10240000000000005
atbF0.23333333333333334
tp1844
a(g8
(g9
(I0
tS'b'
tRp1845
(I1
(I3
tg12
I00
(lp1846
g440
ag856
aF0.49952000000000008
atbF0.51851851851851849
tp1847
a(g8
(g9
(I0
tS'b'
tRp1848
(I1
(I3
tg12
I00
(lp1849
g1085
ag152
aF-0.33791999999999989
atbF0.56000000000000005
tp1850
asg540
(lp1851
(g1529
F0.22857142857142856
tp1852
a(g1532
F1
tp1853
a(g1536
F1
tp1854
a(g1539
F0
tp1855
a(g1542
F0.48571428571428571
tp1856
a(g1546
F1
tp1857
a(g1549
F0.80000000000000004
tp1858
a(g1552
F0
tp1859
a(g1556
F1
tp1860
a(g1559
F0
tp1861
a(g1563
F1
tp1862
a(g1566
F1
tp1863
a(g1569
F0.8571428571428571
tp1864
a(g1572
F1
tp1865
a(g1575
F0
tp1866
a(g1580
F0.45714285714285713
tp1867
a(g1583
F0
tp1868
a(g1586
F1
tp1869
a(g1589
F0.25714285714285712
tp1870
a(g1593
F0
tp1871
a(g1597
F0.42857142857142855
tp1872
a(g1601
F0.25714285714285712
tp1873
a(g1604
F1
tp1874
a(g1607
F1
tp1875
a(g1610
F1
tp1876
a(g1613
F1
tp1877
a(g1616
F1
tp1878
a(g1619
F0
tp1879
a(g1622
F0.25714285714285712
tp1880
a(g1625
F0.17142857142857143
tp1881
a(g1628
F0
tp1882
a(g1631
F0
tp1883
a(g1635
F0.20000000000000001
tp1884
a(g1638
F0
tp1885
a(g1641
F1
tp1886
a(g1644
F0.48571428571428571
tp1887
a(g1647
F1
tp1888
a(g1650
F0
tp1889
a(g1653
F0
tp1890
a(g1656
F0
tp1891
a(g1659
F0.51428571428571423
tp1892
a(g1662
F0
tp1893
a(g1665
F0.65714285714285714
tp1894
a(g1668
F0
tp1895
a(g1671
F0
tp1896
a(g1674
F0
tp1897
a(g1677
F1
tp1898
a(g1680
F0.74285714285714288
tp1899
a(g1684
F1
tp1900
a(g1688
F1
tp1901
a(g1692
F1
tp1902
a(g1696
F0
tp1903
a(g1700
F1
tp1904
a(g1703
F0
tp1905
a(g1706
F0.40000000000000002
tp1906
a(g1709
F0.7142857142857143
tp1907
a(g1712
F1
tp1908
a(g1715
F1
tp1909
a(g1718
F0.80000000000000004
tp1910
a(g1721
F1
tp1911
a(g1724
F0
tp1912
a(g1727
F0
tp1913
a(g1730
F0
tp1914
a(g1733
F1
tp1915
a(g1736
F0
tp1916
a(g1739
F0
tp1917
a(g1742
F0
tp1918
a(g1746
F0.45714285714285713
tp1919
a(g1749
F1
tp1920
a(g1752
F0
tp1921
a(g1755
F0.15151515151515152
tp1922
a(g1758
F1
tp1923
a(g1761
F1
tp1924
a(g1764
F1
tp1925
a(g1767
F0
tp1926
a(g1770
F0
tp1927
a(g1773
F0
tp1928
a(g1777
F0
tp1929
a(g1780
F1
tp1930
a(g1783
F1
tp1931
a(g1787
F0.5714285714285714
tp1932
a(g1790
F0
tp1933
a(g1793
F0.68571428571428572
tp1934
a(g1796
F0
tp1935
a(g1800
F0.62857142857142856
tp1936
a(g1803
F0.37142857142857144
tp1937
a(g1806
F0.45714285714285713
tp1938
a(g1809
F0
tp1939
a(g1813
F1
tp1940
a(g1816
F1
tp1941
a(g1819
F0
tp1942
a(g1822
F0
tp1943
a(g1826
F0.77142857142857146
tp1944
a(g1829
F0.40000000000000002
tp1945
a(g1833
F0
tp1946
a(g1836
F0.65714285714285714
tp1947
a(g1839
F0
tp1948
a(g1842
F0
tp1949
a(g1845
F1
tp1950
a(g1848
F1
tp1951
assg642
(dp1952
g6
(lp1953
(g1529
F0.64000000000000001
tp1954
a(g1532
F0.40000000000000002
tp1955
a(g1536
F0.47826086956521741
tp1956
a(g1539
F0.54545454545454541
tp1957
a(g1542
F0.23999999999999999
tp1958
a(g1546
F0.75
tp1959
a(g1549
F0.57894736842105265
tp1960
a(g1552
F0.44444444444444442
tp1961
a(g1556
F0.65000000000000002
tp1962
a(g1559
F0.42307692307692307
tp1963
a(g1563
F0.42857142857142855
tp1964
a(g1566
F0.56000000000000005
tp1965
a(g1569
F0.45000000000000001
tp1966
a(g1572
F0.7142857142857143
tp1967
a(g1575
F0.68000000000000005
tp1968
a(g1580
F0.38461538461538464
tp1969
a(g1583
F0.30769230769230771
tp1970
a(g1586
F0.34999999999999998
tp1971
a(g1589
F0.69999999999999996
tp1972
a(g1593
F0.63157894736842102
tp1973
a(g1597
F0.45454545454545453
tp1974
a(g1601
F0.59090909090909094
tp1975
a(g1604
F0.34782608695652173
tp1976
a(g1607
F0.54166666666666663
tp1977
a(g1610
F0.43478260869565216
tp1978
a(g1613
F0.61111111111111116
tp1979
a(g1616
F0.39285714285714285
tp1980
a(g1619
F0.5
tp1981
a(g1622
F0.42857142857142855
tp1982
a(g1625
F0.56521739130434778
tp1983
a(g1628
F0.58823529411764708
tp1984
a(g1631
F0.25925925925925924
tp1985
a(g1635
F0.52631578947368418
tp1986
a(g1638
F0.55000000000000004
tp1987
a(g1641
F0.47368421052631576
tp1988
a(g1644
F0.33333333333333331
tp1989
a(g1647
F0.5
tp1990
a(g1650
F0.58333333333333337
tp1991
a(g1653
F0.47999999999999998
tp1992
a(g1656
F0.59999999999999998
tp1993
a(g1659
F0.55000000000000004
tp1994
a(g1662
F0.34782608695652173
tp1995
a(g1665
F0.52380952380952384
tp1996
a(g1668
F0.5
tp1997
a(g1671
F0.63636363636363635
tp1998
a(g1674
F0.59999999999999998
tp1999
a(g1677
F0.52380952380952384
tp2000
a(g1680
F0.3888888888888889
tp2001
a(g1684
F0.33333333333333331
tp2002
a(g1688
F0.52941176470588236
tp2003
a(g1692
F0.61538461538461542
tp2004
a(g1696
F0.40000000000000002
tp2005
a(g1700
F0.45833333333333331
tp2006
a(g1703
F0.58333333333333337
tp2007
a(g1706
F0.47368421052631576
tp2008
a(g1709
F0.77272727272727271
tp2009
a(g1712
F0.54545454545454541
tp2010
a(g1715
F0.6428571428571429
tp2011
a(g1718
F0.52173913043478259
tp2012
a(g1721
F0.5714285714285714
tp2013
a(g1724
F0.55555555555555558
tp2014
a(g1727
F0.45454545454545453
tp2015
a(g1730
F0.34782608695652173
tp2016
a(g1733
F0.26666666666666666
tp2017
a(g1736
F0.5
tp2018
a(g1739
F0.23809523809523808
tp2019
a(g1742
F0.41666666666666669
tp2020
a(g1746
F0.34482758620689657
tp2021
a(g1749
F0.42307692307692307
tp2022
a(g1752
F0.54545454545454541
tp2023
a(g1755
F0.66666666666666663
tp2024
a(g1758
F0.3125
tp2025
a(g1761
F0.47619047619047616
tp2026
a(g1764
F0.5714285714285714
tp2027
a(g1767
F0.59999999999999998
tp2028
a(g1770
F0.45000000000000001
tp2029
a(g1773
F0.45833333333333331
tp2030
a(g1777
F0.45000000000000001
tp2031
a(g1780
F0.39130434782608697
tp2032
a(g1783
F0.42105263157894735
tp2033
a(g1787
F0.61904761904761907
tp2034
a(g1790
F0.52000000000000002
tp2035
a(g1793
F0.51851851851851849
tp2036
a(g1796
F0.45454545454545453
tp2037
a(g1800
F0.47826086956521741
tp2038
a(g1803
F0.5
tp2039
a(g1806
F0.76190476190476186
tp2040
a(g1809
F0.47619047619047616
tp2041
a(g1813
F0.5
tp2042
a(g1816
F0.42857142857142855
tp2043
a(g1819
F0.2857142857142857
tp2044
a(g1822
F0.54166666666666663
tp2045
a(g1826
F0.56000000000000005
tp2046
a(g1829
F0.5
tp2047
a(g1833
F0.38461538461538464
tp2048
a(g1836
F0.40000000000000002
tp2049
a(g1839
F0.5
tp2050
a(g1842
F0.33333333333333331
tp2051
a(g1845
F0.27272727272727271
tp2052
a(g1848
F0.40000000000000002
tp2053
asg540
(lp2054
(g1529
F0.38461538461538464
tp2055
a(g1532
F0.96296296296296291
tp2056
a(g1536
F0
tp2057
a(g1539
F0.5
tp2058
a(g1542
F0.80645161290322576
tp2059
a(g1546
F0
tp2060
a(g1549
F0.14814814814814814
tp2061
a(g1552
F0
tp2062
a(g1556
F0.82758620689655171
tp2063
a(g1559
F0.92000000000000004
tp2064
a(g1563
F1
tp2065
a(g1566
F0.16
tp2066
a(g1569
F0.56666666666666665
tp2067
a(g1572
F0.35714285714285715
tp2068
a(g1575
F0.080000000000000002
tp2069
a(g1580
F0.23809523809523808
tp2070
a(g1583
F1
tp2071
a(g1586
F0.88888888888888884
tp2072
a(g1589
F0.066666666666666666
tp2073
a(g1593
F0.32142857142857145
tp2074
a(g1597
F0.19230769230769232
tp2075
a(g1601
F0.029411764705882353
tp2076
a(g1604
F0.043478260869565216
tp2077
a(g1607
F0.92592592592592593
tp2078
a(g1610
F0.80645161290322576
tp2079
a(g1613
F0
tp2080
a(g1616
F0.82758620689655171
tp2081
a(g1619
F0
tp2082
a(g1622
F0.42857142857142855
tp2083
a(g1625
F0.8214285714285714
tp2084
a(g1628
F0.041666666666666664
tp2085
a(g1631
F1
tp2086
a(g1635
F0.22222222222222221
tp2087
a(g1638
F0.21428571428571427
tp2088
a(g1641
F0.65517241379310343
tp2089
a(g1644
F0.88
tp2090
a(g1647
F1
tp2091
a(g1650
F0.88461538461538458
tp2092
a(g1653
F0
tp2093
a(g1656
F0.035714285714285712
tp2094
a(g1659
F0.80769230769230771
tp2095
a(g1662
F0.37037037037037035
tp2096
a(g1665
F0.071428571428571425
tp2097
a(g1668
F0
tp2098
a(g1671
F0
tp2099
a(g1674
F0.028571428571428571
tp2100
a(g1677
F0.03125
tp2101
a(g1680
F0.75
tp2102
a(g1684
F0.57894736842105265
tp2103
a(g1688
F0
tp2104
a(g1692
F0.83333333333333337
tp2105
a(g1696
F0.25925925925925924
tp2106
a(g1700
F0.73684210526315785
tp2107
a(g1703
F0
tp2108
a(g1706
F0.59259259259259256
tp2109
a(g1709
F0.4642857142857143
tp2110
a(g1712
F1
tp2111
a(g1715
F1
tp2112
a(g1718
F0.66666666666666663
tp2113
a(g1721
F1
tp2114
a(g1724
F0.5
tp2115
a(g1727
F0
tp2116
a(g1730
F0.4838709677419355
tp2117
a(g1733
F0.91304347826086951
tp2118
a(g1736
F0.5
tp2119
a(g1739
F0.44444444444444442
tp2120
a(g1742
F0.26923076923076922
tp2121
a(g1746
F0.32142857142857145
tp2122
a(g1749
F0.46666666666666667
tp2123
a(g1752
F0.7142857142857143
tp2124
a(g1755
F0.15625
tp2125
a(g1758
F0.15384615384615385
tp2126
a(g1761
F0.9642857142857143
tp2127
a(g1764
F0.80000000000000004
tp2128
a(g1767
F0.12121212121212122
tp2129
a(g1770
F0.064516129032258063
tp2130
a(g1773
F0.5
tp2131
a(g1777
F0
tp2132
a(g1780
F1
tp2133
a(g1783
F0.91304347826086951
tp2134
a(g1787
F0.58064516129032262
tp2135
a(g1790
F0.36363636363636365
tp2136
a(g1793
F0.6071428571428571
tp2137
a(g1796
F0.27272727272727271
tp2138
a(g1800
F0.70370370370370372
tp2139
a(g1803
F0.7142857142857143
tp2140
a(g1806
F1
tp2141
a(g1809
F0.76923076923076927
tp2142
a(g1813
F1
tp2143
a(g1816
F0.10344827586206896
tp2144
a(g1819
F0
tp2145
a(g1822
F0.16666666666666666
tp2146
a(g1826
F1
tp2147
a(g1829
F0.5
tp2148
a(g1833
F0
tp2149
a(g1836
F0.66666666666666663
tp2150
a(g1839
F0
tp2151
a(g1842
F0.46153846153846156
tp2152
a(g1845
F0.61764705882352944
tp2153
a(g1848
F0.32142857142857145
tp2154
asss.