(dp1
S'DCG'
p2
(dp3
S'probabilistic'
p4
(lp5
(cnumpy.core.multiarray
_reconstruct
p6
(cnumpy
ndarray
p7
(I0
tS'b'
tRp8
(I1
(I3
tcnumpy
dtype
p9
(S'O8'
I0
I1
tRp10
(I3
S'|'
NNNI-1
I-1
I63
tbI00
(lp11
(I0
I0
I1
I1
I1
tp12
a(I0
I2
I1
I0
I0
tp13
acnumpy.core.multiarray
scalar
p14
(g9
(S'f8'
I0
I1
tRp15
(I3
S'<'
NNNI-1
I-1
I0
tbS'W\x89W\xb8C4\xf1?'
tRp16
atbF0
tp17
a(g6
(g7
(I0
tS'b'
tRp18
(I1
(I3
tg10
I00
(lp19
(I0
I2
I2
I1
I0
tp20
a(I1
I1
I1
I2
I2
tp21
ag14
(g15
S'\xf0\xb4\xe4\xa2XR\xe8?'
tRp22
atbF1
tp23
a(g6
(g7
(I0
tS'b'
tRp24
(I1
(I3
tg10
I00
(lp25
(I0
I0
I2
I0
I0
tp26
a(I2
I0
I2
I0
I0
tp27
ag14
(g15
S'\x00\x00\x00\x00\x00\x00\x08@'
tRp28
atbF1
tp29
a(g6
(g7
(I0
tS'b'
tRp30
(I1
(I3
tg10
I00
(lp31
(I2
I1
I0
I1
I0
tp32
a(I1
I2
I2
I1
I1
tp33
ag14
(g15
S'\xe47\xec) a\xf2?'
tRp34
atbF0
tp35
a(g6
(g7
(I0
tS'b'
tRp36
(I1
(I3
tg10
I00
(lp37
(I1
I1
I0
I0
I0
tp38
a(I0
I1
I2
I0
I2
tp39
ag14
(g15
S'\xf9\x07%\xb5\xa5\x91\xfa?'
tRp40
atbF0
tp41
a(g6
(g7
(I0
tS'b'
tRp42
(I1
(I3
tg10
I00
(lp43
(I1
I2
I0
I0
I0
tp44
a(I2
I1
I2
I2
I1
tp45
ag14
(g15
S'\x82\xcc"$\x10V\x0f@'
tRp46
atbF1
tp47
a(g6
(g7
(I0
tS'b'
tRp48
(I1
(I3
tg10
I00
(lp49
(I0
I1
I1
I0
I0
tp50
a(I2
I1
I2
I1
I1
tp51
ag14
(g15
S'\xa1\x11\xfej&E\x13@'
tRp52
atbF0
tp53
a(g6
(g7
(I0
tS'b'
tRp54
(I1
(I3
tg10
I00
(lp55
(I0
I0
I0
I0
I1
tp56
a(I1
I2
I2
I2
I2
tp57
ag14
(g15
S'1h\xa0u\x87\xd5\x19@'
tRp58
atbF1
tp59
a(g6
(g7
(I0
tS'b'
tRp60
(I1
(I3
tg10
I00
(lp61
(I1
I0
I0
I2
I2
tp62
a(I2
I0
I2
I1
I2
tp63
ag14
(g15
S'"\xbc\xbe\xe5\xf2\x1b\x05@'
tRp64
atbF1
tp65
a(g6
(g7
(I0
tS'b'
tRp66
(I1
(I3
tg10
I00
(lp67
(I1
I2
I1
I0
I2
tp68
a(I1
I2
I0
I2
I1
tp69
ag14
(g15
S'\x00\x92q\xd5\x8a\xc3\x92?'
tRp70
atbF0
tp71
a(g6
(g7
(I0
tS'b'
tRp72
(I1
(I3
tg10
I00
(lp73
(I1
I0
I2
I2
I2
tp74
a(I1
I2
I1
I1
I2
tp75
ag14
(g15
S'\x00\x04\xa9\xf9e\x18\xa0?'
tRp76
atbF0
tp77
a(g6
(g7
(I0
tS'b'
tRp78
(I1
(I3
tg10
I00
(lp79
(I0
I1
I0
I2
I0
tp80
a(I1
I1
I0
I1
I1
tp81
ag14
(g15
S'\xdc\xf5h\xba\xe4\xd0\xe0?'
tRp82
atbF1
tp83
a(g6
(g7
(I0
tS'b'
tRp84
(I1
(I3
tg10
I00
(lp85
(I0
I1
I0
I2
I2
tp86
a(I2
I1
I2
I0
I1
tp87
ag14
(g15
S'\x8d\x17\xe7\xc6_y\x03@'
tRp88
atbF1
tp89
a(g6
(g7
(I0
tS'b'
tRp90
(I1
(I3
tg10
I00
(lp91
(I1
I0
I0
I0
I0
tp92
a(I2
I2
I2
I2
I1
tp93
ag14
(g15
S'\x88\xa72QdI\x1c@'
tRp94
atbF0
tp95
a(g6
(g7
(I0
tS'b'
tRp96
(I1
(I3
tg10
I00
(lp97
(I1
I1
I0
I0
I1
tp98
a(I0
I2
I1
I0
I2
tp99
ag14
(g15
S'\x8c:\xa3\xbb\xac\x91\xf8?'
tRp100
atbF1
tp101
a(g6
(g7
(I0
tS'b'
tRp102
(I1
(I3
tg10
I00
(lp103
(I0
I1
I0
I0
I2
tp104
ag20
ag14
(g15
S'\x90\xb8\xa8~}A\x00@'
tRp105
atbF0
tp106
a(g6
(g7
(I0
tS'b'
tRp107
(I1
(I3
tg10
I00
(lp108
g12
a(I2
I2
I2
I0
I2
tp109
ag14
(g15
S'T$_[z\xf1\x18@'
tRp110
atbF0
tp111
a(g6
(g7
(I0
tS'b'
tRp112
(I1
(I3
tg10
I00
(lp113
(I0
I1
I1
I1
I2
tp114
ag20
ag14
(g15
S'D-\x10\xe3\xed\x9e\xf1?'
tRp115
atbF0
tp116
a(g6
(g7
(I0
tS'b'
tRp117
(I1
(I3
tg10
I00
(lp118
(I0
I2
I2
I0
I1
tp119
a(I2
I0
I1
I2
I0
tp120
ag14
(g15
S'\x14\xf9\xbcX\xbd2\xf0?'
tRp121
atbF1
tp122
a(g6
(g7
(I0
tS'b'
tRp123
(I1
(I3
tg10
I00
(lp124
g45
a(I2
I2
I2
I2
I2
tp125
ag14
(g15
S'H\x9d\xd1]\xd6H\x00@'
tRp126
atbF0
tp127
a(g6
(g7
(I0
tS'b'
tRp128
(I1
(I3
tg10
I00
(lp129
g92
a(I2
I2
I0
I0
I1
tp130
ag14
(g15
S'\xa1\xb4\x81}Z\x1e\x11@'
tRp131
atbF0
tp132
a(g6
(g7
(I0
tS'b'
tRp133
(I1
(I3
tg10
I00
(lp134
(I2
I0
I0
I2
I1
tp135
a(I2
I1
I1
I2
I0
tp136
ag14
(g15
S'\xf0/\xc7tz\xcf\xe7?'
tRp137
atbF0
tp138
a(g6
(g7
(I0
tS'b'
tRp139
(I1
(I3
tg10
I00
(lp140
(I1
I1
I1
I1
I2
tp141
a(I2
I0
I1
I1
I0
tp142
ag14
(g15
S'@\xeb\x02\xf6\x83\xb0\xca?'
tRp143
atbF1
tp144
a(g6
(g7
(I0
tS'b'
tRp145
(I1
(I3
tg10
I00
(lp146
(I0
I2
I1
I1
I2
tp147
ag32
ag14
(g15
S'\xc0,\\*k\xdc\xb3?'
tRp148
atbF0
tp149
a(g6
(g7
(I0
tS'b'
tRp150
(I1
(I3
tg10
I00
(lp151
(I1
I0
I2
I1
I2
tp152
a(I1
I2
I2
I0
I0
tp153
ag14
(g15
S' \x10\xa6S\xaaL\xd3?'
tRp154
atbF0
tp155
a(g6
(g7
(I0
tS'b'
tRp156
(I1
(I3
tg10
I00
(lp157
g130
a(I2
I1
I2
I0
I2
tp158
ag14
(g15
S'\x14\xd08\x8b\x850\xf0?'
tRp159
atbF0
tp160
a(g6
(g7
(I0
tS'b'
tRp161
(I1
(I3
tg10
I00
(lp162
(I1
I0
I1
I0
I0
tp163
a(I0
I1
I2
I1
I1
tp164
ag14
(g15
S'$\xe1\x12x\xe3,\xf7?'
tRp165
atbF1
tp166
a(g6
(g7
(I0
tS'b'
tRp167
(I1
(I3
tg10
I00
(lp168
(I1
I0
I0
I1
I2
tp169
a(I0
I1
I1
I2
I2
tp170
ag14
(g15
S'\xb4D:\x01\xc8\xc0\xef?'
tRp171
atbF0
tp172
a(g6
(g7
(I0
tS'b'
tRp173
(I1
(I3
tg10
I00
(lp174
(I1
I0
I0
I2
I0
tp175
a(I0
I2
I0
I1
I2
tp176
ag14
(g15
S'\x18P\xf2\xe4h\x12\xf3?'
tRp177
atbF1
tp178
a(g6
(g7
(I0
tS'b'
tRp179
(I1
(I3
tg10
I00
(lp180
(I2
I1
I1
I1
I1
tp181
a(I2
I2
I1
I1
I0
tp182
ag14
(g15
S'(e\xfc\x0c\x0e\x00\xec?'
tRp183
atbF0
tp184
a(g6
(g7
(I0
tS'b'
tRp185
(I1
(I3
tg10
I00
(lp186
(I1
I1
I1
I0
I0
tp187
a(I2
I0
I0
I0
I0
tp188
ag14
(g15
S'\xc0\xca\xcagl\xcf\xeb?'
tRp189
atbF0
tp190
a(g6
(g7
(I0
tS'b'
tRp191
(I1
(I3
tg10
I00
(lp192
(I0
I0
I1
I2
I1
tp193
a(I1
I1
I2
I2
I2
tp194
ag14
(g15
S'\xf8O\xc4w\xb1<\x0b@'
tRp195
atbF0
tp196
a(g6
(g7
(I0
tS'b'
tRp197
(I1
(I3
tg10
I00
(lp198
(I0
I0
I0
I0
I0
tp199
a(I1
I1
I0
I2
I0
tp200
ag14
(g15
S'\x1b3o\x8d8b\x07@'
tRp201
atbF0
tp202
a(g6
(g7
(I0
tS'b'
tRp203
(I1
(I3
tg10
I00
(lp204
(I2
I1
I0
I2
I1
tp205
ag182
ag14
(g15
S'\xb0U\xf7\xa3\xd9o\xe0?'
tRp206
atbF0
tp207
a(g6
(g7
(I0
tS'b'
tRp208
(I1
(I3
tg10
I00
(lp209
(I1
I1
I1
I0
I1
tp210
a(I2
I0
I0
I2
I0
tp211
ag14
(g15
S'P.\xf2\xf0Pc\xfc?'
tRp212
atbF0
tp213
a(g6
(g7
(I0
tS'b'
tRp214
(I1
(I3
tg10
I00
(lp215
(I0
I2
I0
I2
I0
tp216
a(I2
I1
I1
I2
I2
tp217
ag14
(g15
S'^\xe9w\x0e\x890\x0b@'
tRp218
atbF1
tp219
a(g6
(g7
(I0
tS'b'
tRp220
(I1
(I3
tg10
I00
(lp221
g210
a(I1
I0
I2
I1
I1
tp222
ag14
(g15
S'xRM\x9c\x86\x97\xe9?'
tRp223
atbF0
tp224
a(g6
(g7
(I0
tS'b'
tRp225
(I1
(I3
tg10
I00
(lp226
g45
a(I2
I0
I2
I2
I2
tp227
ag14
(g15
S'\x80U\x9b\xbazF\xc2?'
tRp228
atbF0
tp229
a(g6
(g7
(I0
tS'b'
tRp230
(I1
(I3
tg10
I00
(lp231
g98
ag39
ag14
(g15
S'P\x05n#\x19a\xf4?'
tRp232
atbF0
tp233
a(g6
(g7
(I0
tS'b'
tRp234
(I1
(I3
tg10
I00
(lp235
g200
a(I1
I1
I2
I2
I0
tp236
ag14
(g15
S'\x02\x00\x00\x00\x00\x00\xf8?'
tRp237
atbF1
tp238
a(g6
(g7
(I0
tS'b'
tRp239
(I1
(I3
tg10
I00
(lp240
(I0
I0
I1
I1
I0
tp241
ag26
ag14
(g15
S'Fx}\xcb\xe57\xe2?'
tRp242
atbF1
tp243
a(g6
(g7
(I0
tS'b'
tRp244
(I1
(I3
tg10
I00
(lp245
g164
a(I0
I1
I2
I2
I1
tp246
ag14
(g15
S'x\x0f\x05i4\x90\xeb?'
tRp247
atbF0
tp248
a(g6
(g7
(I0
tS'b'
tRp249
(I1
(I3
tg10
I00
(lp250
(I0
I0
I2
I1
I0
tp251
a(I1
I0
I1
I2
I2
tp252
ag14
(g15
S'\xda\xc7\xd3\xf4\xdf,\x00@'
tRp253
atbF0
tp254
a(g6
(g7
(I0
tS'b'
tRp255
(I1
(I3
tg10
I00
(lp256
g104
a(I0
I2
I1
I1
I1
tp257
ag14
(g15
S'\xc9s\x08\x8f\x87\xb3\xf6?'
tRp258
atbF1
tp259
a(g6
(g7
(I0
tS'b'
tRp260
(I1
(I3
tg10
I00
(lp261
(I1
I1
I0
I1
I0
tp262
a(I1
I2
I0
I1
I0
tp263
ag14
(g15
S'<55\x98\x930\xf4?'
tRp264
atbF0
tp265
a(g6
(g7
(I0
tS'b'
tRp266
(I1
(I3
tg10
I00
(lp267
(I0
I1
I1
I2
I0
tp268
a(I1
I2
I1
I2
I1
tp269
ag14
(g15
S'\xf3\x1b\xf6\x14\x900\x05@'
tRp270
atbF0
tp271
a(g6
(g7
(I0
tS'b'
tRp272
(I1
(I3
tg10
I00
(lp273
(I0
I2
I0
I2
I2
tp274
ag125
ag14
(g15
S'\x01\x00\x00\x00\x00\x00\x12@'
tRp275
atbF0
tp276
a(g6
(g7
(I0
tS'b'
tRp277
(I1
(I3
tg10
I00
(lp278
(I0
I1
I2
I0
I0
tp279
a(I0
I2
I2
I2
I0
tp280
ag14
(g15
S'j\x80|s]n\x04@'
tRp281
atbF0
tp282
a(g6
(g7
(I0
tS'b'
tRp283
(I1
(I3
tg10
I00
(lp284
(I1
I2
I0
I0
I2
tp285
a(I2
I0
I2
I2
I1
tp286
ag14
(g15
S'6\xfb\x82c\x18\x01\x01@'
tRp287
atbF0
tp288
a(g6
(g7
(I0
tS'b'
tRp289
(I1
(I3
tg10
I00
(lp290
g98
a(I1
I2
I2
I1
I0
tp291
ag14
(g15
S'8\xbb_\x10\nr\x06@'
tRp292
atbF0
tp293
a(g6
(g7
(I0
tS'b'
tRp294
(I1
(I3
tg10
I00
(lp295
(I2
I0
I1
I1
I1
tp296
a(I1
I2
I1
I2
I0
tp297
ag14
(g15
S'\xc0Sm\x1c\xac\x81\xd7?'
tRp298
atbF1
tp299
a(g6
(g7
(I0
tS'b'
tRp300
(I1
(I3
tg10
I00
(lp301
g176
a(I0
I2
I1
I2
I2
tp302
ag14
(g15
S'\xbc\x87\x824\x1a\xc8\xf5?'
tRp303
atbF1
tp304
a(g6
(g7
(I0
tS'b'
tRp305
(I1
(I3
tg10
I00
(lp306
(I0
I2
I1
I1
I0
tp307
a(I1
I0
I1
I2
I1
tp308
ag14
(g15
S' \xea\xa6\x87%\xbf\xd6?'
tRp309
atbF1
tp310
a(g6
(g7
(I0
tS'b'
tRp311
(I1
(I3
tg10
I00
(lp312
(I0
I1
I0
I1
I1
tp313
a(I2
I2
I1
I2
I2
tp314
ag14
(g15
S'\x92p\t\xbcq\x96\x19@'
tRp315
atbF1
tp316
a(g6
(g7
(I0
tS'b'
tRp317
(I1
(I3
tg10
I00
(lp318
g164
a(I1
I1
I0
I2
I2
tp319
ag14
(g15
S'\x0c\x8d\xf0W3)\xf2?'
tRp320
atbF1
tp321
a(g6
(g7
(I0
tS'b'
tRp322
(I1
(I3
tg10
I00
(lp323
(I1
I1
I0
I1
I2
tp324
ag211
ag14
(g15
S'$\xe5B\xb3*\x1e\xf1?'
tRp325
atbF0
tp326
a(g6
(g7
(I0
tS'b'
tRp327
(I1
(I3
tg10
I00
(lp328
g176
ag45
ag14
(g15
S'\x98\xa6o\xbc6\x9b\n@'
tRp329
atbF1
tp330
a(g6
(g7
(I0
tS'b'
tRp331
(I1
(I3
tg10
I00
(lp332
g285
a(I2
I2
I1
I2
I0
tp333
ag14
(g15
S'\xd0a\xcf\xcc@\r\x05@'
tRp334
atbF0
tp335
a(g6
(g7
(I0
tS'b'
tRp336
(I1
(I3
tg10
I00
(lp337
g246
ag125
ag14
(g15
S'\xa4\xce\xe8.k$\x14@'
tRp338
atbF1
tp339
a(g6
(g7
(I0
tS'b'
tRp340
(I1
(I3
tg10
I00
(lp341
(I0
I2
I0
I1
I0
tp342
ag176
ag14
(g15
S'\xf8\x07%\xb5\xa5\x91\xf2?'
tRp343
atbF0
tp344
a(g6
(g7
(I0
tS'b'
tRp345
(I1
(I3
tg10
I00
(lp346
g199
a(I2
I2
I0
I2
I2
tp347
ag14
(g15
S'\xdb(\x0e\x9a\xaaa\x1d@'
tRp348
atbF1
tp349
a(g6
(g7
(I0
tS'b'
tRp350
(I1
(I3
tg10
I00
(lp351
(I2
I0
I0
I0
I1
tp352
ag217
ag14
(g15
S'\xc45&\x1f\xc5\x92\t@'
tRp353
atbF0
tp354
a(g6
(g7
(I0
tS'b'
tRp355
(I1
(I3
tg10
I00
(lp356
(I2
I1
I1
I1
I0
tp357
a(I2
I1
I2
I2
I0
tp358
ag14
(g15
S'\xbc\x87\x824\x1a\xc8\xfd?'
tRp359
atbF0
tp360
a(g6
(g7
(I0
tS'b'
tRp361
(I1
(I3
tg10
I00
(lp362
g120
ag291
ag14
(g15
S'\x00\x04\xa9\xf9e\x18\xa0?'
tRp363
atbF1
tp364
a(g6
(g7
(I0
tS'b'
tRp365
(I1
(I3
tg10
I00
(lp366
(I1
I0
I1
I0
I2
tp367
ag86
ag14
(g15
S'\xd8\x98yk\xc4\x11\xdb?'
tRp368
atbF0
tp369
a(g6
(g7
(I0
tS'b'
tRp370
(I1
(I3
tg10
I00
(lp371
(I2
I0
I1
I1
I2
tp372
a(I2
I1
I2
I1
I0
tp373
ag14
(g15
S'\xa0J\xd6[\x90\x1a\xde?'
tRp374
atbF1
tp375
a(g6
(g7
(I0
tS'b'
tRp376
(I1
(I3
tg10
I00
(lp377
(I0
I1
I2
I2
I2
tp378
ag181
ag14
(g15
S'\xd0\xcb=\xa02[\xd7?'
tRp379
atbF0
tp380
a(g6
(g7
(I0
tS'b'
tRp381
(I1
(I3
tg10
I00
(lp382
(I1
I1
I1
I2
I1
tp383
ag109
ag14
(g15
S'z\xb7o\xb6\xc2\xf2\r@'
tRp384
atbF0
tp385
a(g6
(g7
(I0
tS'b'
tRp386
(I1
(I3
tg10
I00
(lp387
g241
a(I2
I2
I1
I0
I2
tp388
ag14
(g15
S'\xfe\xe4\xcc\x7f\x9d}\x16@'
tRp389
atbF1
tp390
a(g6
(g7
(I0
tS'b'
tRp391
(I1
(I3
tg10
I00
(lp392
(I0
I0
I2
I1
I1
tp393
a(I2
I2
I0
I0
I2
tp394
ag14
(g15
S'\xa8H\xbe\xb6\xf4\xe2\r@'
tRp395
atbF1
tp396
a(g6
(g7
(I0
tS'b'
tRp397
(I1
(I3
tg10
I00
(lp398
g319
ag158
ag14
(g15
S'4\x1a\x9eX\xec\xa9\x01@'
tRp399
atbF0
tp400
a(g6
(g7
(I0
tS'b'
tRp401
(I1
(I3
tg10
I00
(lp402
g251
a(I2
I0
I2
I2
I0
tp403
ag14
(g15
S'\xdeCA\x1a\r\xe4\x0e@'
tRp404
atbF0
tp405
a(g6
(g7
(I0
tS'b'
tRp406
(I1
(I3
tg10
I00
(lp407
(I2
I0
I0
I1
I1
tp408
ag45
ag14
(g15
S'.\x91N\x002\xf0\x07@'
tRp409
atbF0
tp410
a(g6
(g7
(I0
tS'b'
tRp411
(I1
(I3
tg10
I00
(lp412
(I1
I1
I2
I0
I2
tp413
ag182
ag14
(g15
S' qQ\xfd\xfa\x82\xf8?'
tRp414
atbF1
tp415
a(g6
(g7
(I0
tS'b'
tRp416
(I1
(I3
tg10
I00
(lp417
(I1
I1
I1
I1
I1
tp418
ag358
ag14
(g15
S'\x8a\xc2e\xd1\xc6\xcb\x0b@'
tRp419
atbF0
tp420
a(g6
(g7
(I0
tS'b'
tRp421
(I1
(I3
tg10
I00
(lp422
g26
a(I0
I1
I1
I1
I1
tp423
ag14
(g15
S'\x90\x84K\xe0\x8d\xb3\xdc?'
tRp424
atbF1
tp425
a(g6
(g7
(I0
tS'b'
tRp426
(I1
(I3
tg10
I00
(lp427
(I1
I0
I0
I0
I2
tp428
ag263
ag14
(g15
S'\xc0\x0bl\xc9D\x9b\xf2?'
tRp429
atbF0
tp430
a(g6
(g7
(I0
tS'b'
tRp431
(I1
(I3
tg10
I00
(lp432
(I2
I2
I1
I0
I1
tp433
ag333
ag14
(g15
S'\xe0\x91\x19z5\xf7\xec?'
tRp434
atbF0
tp435
a(g6
(g7
(I0
tS'b'
tRp436
(I1
(I3
tg10
I00
(lp437
(I0
I0
I2
I0
I2
tp438
ag120
ag14
(g15
S'\xd0a\xcf\xcc@\r\x01@'
tRp439
atbF0
tp440
a(g6
(g7
(I0
tS'b'
tRp441
(I1
(I3
tg10
I00
(lp442
g319
a(I1
I2
I0
I2
I0
tp443
ag14
(g15
S'@\xd4\x021\xde\xee\xb9?'
tRp444
atbF1
tp445
a(g6
(g7
(I0
tS'b'
tRp446
(I1
(I3
tg10
I00
(lp447
g302
ag33
ag14
(g15
S'\xd0\xcb=\xa02[\xd7?'
tRp448
atbF1
tp449
a(g6
(g7
(I0
tS'b'
tRp450
(I1
(I3
tg10
I00
(lp451
g279
ag153
ag14
(g15
S'\x9e\x9a\x1a\xccI\x18\x02@'
tRp452
atbF0
tp453
a(g6
(g7
(I0
tS'b'
tRp454
(I1
(I3
tg10
I00
(lp455
(I1
I0
I0
I0
I1
tp456
ag372
ag14
(g15
S'\x96\xa4\xd7\x1e\x93\xa2\r@'
tRp457
atbF0
tp458
a(g6
(g7
(I0
tS'b'
tRp459
(I1
(I3
tg10
I00
(lp460
g418
ag269
ag14
(g15
S'|\xde[\xe6V\xfc\x00@'
tRp461
atbF0
tp462
a(g6
(g7
(I0
tS'b'
tRp463
(I1
(I3
tg10
I00
(lp464
g246
ag280
ag14
(g15
S'(e\xfc\x0c\x0e\x00\xec?'
tRp465
atbF0
tp466
a(g6
(g7
(I0
tS'b'
tRp467
(I1
(I3
tg10
I00
(lp468
(I0
I1
I0
I1
I0
tp469
a(I2
I1
I0
I2
I2
tp470
ag14
(g15
S'\xed\xe3i\xfao\x16\x14@'
tRp471
atbF1
tp472
a(g6
(g7
(I0
tS'b'
tRp473
(I1
(I3
tg10
I00
(lp474
g199
ag86
ag14
(g15
S'\x17\xb7\x01h\x0b\xab\x08@'
tRp475
atbF1
tp476
a(g6
(g7
(I0
tS'b'
tRp477
(I1
(I3
tg10
I00
(lp478
(I2
I1
I1
I0
I2
tp479
ag63
ag14
(g15
S'xRM\x9c\x86\x97\xe9?'
tRp480
atbF1
tp481
a(g6
(g7
(I0
tS'b'
tRp482
(I1
(I3
tg10
I00
(lp483
(I0
I0
I0
I1
I1
tp484
ag433
ag14
(g15
S'\x00\xa3\x83\x124\xd9\x13@'
tRp485
atbF1
tp486
a(g6
(g7
(I0
tS'b'
tRp487
(I1
(I3
tg10
I00
(lp488
(I2
I1
I2
I0
I0
tp489
a(I1
I2
I2
I2
I0
tp490
ag14
(g15
S'\xa8\x01\xf2\xcdu\xb9\xe1?'
tRp491
atbF0
tp492
a(g6
(g7
(I0
tS'b'
tRp493
(I1
(I3
tg10
I00
(lp494
(I0
I1
I0
I1
I2
tp495
a(I1
I1
I2
I0
I1
tp496
ag14
(g15
S'\xd4\xb6P\xc2\xd9\xba\xf4?'
tRp497
atbF1
tp498
a(g6
(g7
(I0
tS'b'
tRp499
(I1
(I3
tg10
I00
(lp500
g291
ag125
ag14
(g15
S'\xee\xe3i\xfao\x16\x10@'
tRp501
atbF0
tp502
a(g6
(g7
(I0
tS'b'
tRp503
(I1
(I3
tg10
I00
(lp504
g62
a(I2
I0
I2
I1
I0
tp505
ag14
(g15
S'LpX\x16@\xa6\xf7?'
tRp506
atbF0
tp507
a(g6
(g7
(I0
tS'b'
tRp508
(I1
(I3
tg10
I00
(lp509
(I0
I1
I1
I1
I0
tp510
a(I0
I2
I0
I1
I1
tp511
ag14
(g15
S'\xe47\xec) a\xf2?'
tRp512
atbF0
tp513
a(g6
(g7
(I0
tS'b'
tRp514
(I1
(I3
tg10
I00
(lp515
g152
a(I2
I0
I2
I0
I1
tp516
ag14
(g15
S'\xa8m\xa1\x84\xb3u\xe9?'
tRp517
atbF0
tp518
a(g6
(g7
(I0
tS'b'
tRp519
(I1
(I3
tg10
I00
(lp520
g438
a(I0
I2
I2
I2
I1
tp521
ag14
(g15
S'\x12\xcb\xd2\xc7\xf5I\x03@'
tRp522
atbF1
tp523
a(g6
(g7
(I0
tS'b'
tRp524
(I1
(I3
tg10
I00
(lp525
(I0
I0
I2
I0
I1
tp526
ag45
ag14
(g15
S'\x8e\x99\xb7F\x1c\xb1\x13@'
tRp527
atbF0
tp528
a(g6
(g7
(I0
tS'b'
tRp529
(I1
(I3
tg10
I00
(lp530
g142
ag333
ag14
(g15
S'\xcc+i\xcc{\x08\x06@'
tRp531
atbF0
tp532
a(g6
(g7
(I0
tS'b'
tRp533
(I1
(I3
tg10
I00
(lp534
g80
ag205
ag14
(g15
S'U\x81\xdbHF\x18\x0b@'
tRp535
atbF0
tp536
a(g6
(g7
(I0
tS'b'
tRp537
(I1
(I3
tg10
I00
(lp538
(I1
I1
I2
I1
I2
tp539
a(I2
I1
I0
I1
I2
tp540
ag14
(g15
S'\x00\x00\x00\x00\x00\x00\xe0?'
tRp541
atbF1
tp542
a(g6
(g7
(I0
tS'b'
tRp543
(I1
(I3
tg10
I00
(lp544
(I0
I0
I0
I2
I1
tp545
ag200
ag14
(g15
S'\xf7\x97c:\xbd\xe7\xf3?'
tRp546
atbF0
tp547
a(g6
(g7
(I0
tS'b'
tRp548
(I1
(I3
tg10
I00
(lp549
(I1
I0
I2
I0
I1
tp550
ag211
ag14
(g15
S'\xf0\xc8\x0c\xbd\x9a{\xf6?'
tRp551
atbF1
tp552
a(g6
(g7
(I0
tS'b'
tRp553
(I1
(I3
tg10
I00
(lp554
g69
a(I2
I0
I2
I0
I2
tp555
ag14
(g15
S'\xdciZp\x14l\xf1?'
tRp556
atbF0
tp557
a(g6
(g7
(I0
tS'b'
tRp558
(I1
(I3
tg10
I00
(lp559
(I1
I0
I2
I1
I0
tp560
ag257
ag14
(g15
S'\x10J\x1b\xd8\xa7\xe5\xd1?'
tRp561
atbF0
tp562
a(g6
(g7
(I0
tS'b'
tRp563
(I1
(I3
tg10
I00
(lp564
(I1
I0
I2
I2
I1
tp565
ag125
ag14
(g15
S'Lu\xef\xa1}\xaa\x12@'
tRp566
atbF1
tp567
a(g6
(g7
(I0
tS'b'
tRp568
(I1
(I3
tg10
I00
(lp569
g383
a(I2
I0
I0
I0
I2
tp570
ag14
(g15
S'`|>"\xa0r\xd6?'
tRp571
atbF0
tp572
a(g6
(g7
(I0
tS'b'
tRp573
(I1
(I3
tg10
I00
(lp574
g560
ag565
ag14
(g15
S'd\x8a9\xc6\xa6\xf8\xf3?'
tRp575
atbF0
tp576
a(g6
(g7
(I0
tS'b'
tRp577
(I1
(I3
tg10
I00
(lp578
(I0
I0
I1
I2
I0
tp579
a(I0
I1
I1
I0
I2
tp580
ag14
(g15
S'\x04\\\xef\xc9 \xf7\xdf?'
tRp581
atbF0
tp582
a(g6
(g7
(I0
tS'b'
tRp583
(I1
(I3
tg10
I00
(lp584
(I0
I2
I2
I2
I2
tp585
ag227
ag14
(g15
S'$0\xb0\x9b"\xb7\xf1?'
tRp586
atbF1
tp587
a(g6
(g7
(I0
tS'b'
tRp588
(I1
(I3
tg10
I00
(lp589
(I0
I1
I0
I0
I0
tp590
ag114
ag14
(g15
S'\xea%\xb3g\xd9\xba\x00@'
tRp591
atbF1
tp592
a(g6
(g7
(I0
tS'b'
tRp593
(I1
(I3
tg10
I00
(lp594
g141
a(I1
I2
I0
I2
I2
tp595
ag14
(g15
S'\xf8\xbc\xb7\xcc\xad\xf8\xf9?'
tRp596
atbF1
tp597
a(g6
(g7
(I0
tS'b'
tRp598
(I1
(I3
tg10
I00
(lp599
(I1
I1
I0
I0
I2
tp600
ag314
ag14
(g15
S'5@\xbe\xb9.7\x14@'
tRp601
atbF0
tp602
a(g6
(g7
(I0
tS'b'
tRp603
(I1
(I3
tg10
I00
(lp604
(I1
I0
I2
I0
I2
tp605
ag403
ag14
(g15
S'\xd0a\xcf\xcc@\r\x01@'
tRp606
atbF1
tp607
a(g6
(g7
(I0
tS'b'
tRp608
(I1
(I3
tg10
I00
(lp609
g319
ag489
ag14
(g15
S'p,\x17\xfc2\xc2\xf0?'
tRp610
atbF0
tp611
a(g6
(g7
(I0
tS'b'
tRp612
(I1
(I3
tg10
I00
(lp613
g545
a(I1
I1
I1
I1
I0
tp614
ag14
(g15
S'z \xc2\x0bF?\xec?'
tRp615
atbF0
tp616
a(g6
(g7
(I0
tS'b'
tRp617
(I1
(I3
tg10
I00
(lp618
g56
ag194
ag14
(g15
S'\xe2\x1a\x93\x8fb\xc9\x14@'
tRp619
atbF0
tp620
a(g6
(g7
(I0
tS'b'
tRp621
(I1
(I3
tg10
I00
(lp622
(I0
I0
I2
I2
I2
tp623
ag51
ag14
(g15
S'\x94\r*t\x16\xef\xff?'
tRp624
atbF0
tp625
a(g6
(g7
(I0
tS'b'
tRp626
(I1
(I3
tg10
I00
(lp627
g246
ag516
ag14
(g15
S'\xc8\x99!\xe5\x8e;\xf1?'
tRp628
atbF0
tp629
a(g6
(g7
(I0
tS'b'
tRp630
(I1
(I3
tg10
I00
(lp631
g176
ag296
ag14
(g15
S'\xa8U\x84\xf0\x12\xac\xea?'
tRp632
atbF1
tp633
a(g6
(g7
(I0
tS'b'
tRp634
(I1
(I3
tg10
I00
(lp635
(I1
I2
I1
I0
I1
tp636
a(I0
I2
I2
I0
I2
tp637
ag14
(g15
S'\xa0\n\xdcF2\xc2\xe8?'
tRp638
atbF0
tp639
asS'team'
p640
(lp641
(g8
F1
tp642
a(g18
F0.93478260869565222
tp643
a(g24
F1
tp644
a(g30
F0.97959183673469385
tp645
a(g36
F0
tp646
a(g42
F0.97916666666666663
tp647
a(g48
F0.97916666666666663
tp648
a(g54
F0.95744680851063835
tp649
a(g60
F0.95454545454545459
tp650
a(g66
F1
tp651
a(g72
F0.081632653061224483
tp652
a(g78
F1
tp653
a(g84
F0.9555555555555556
tp654
a(g90
F0.97959183673469385
tp655
a(g96
F0
tp656
a(g102
F0
tp657
a(g107
F0.021739130434782608
tp658
a(g112
F1
tp659
a(g117
F1
tp660
a(g123
F0.041666666666666664
tp661
a(g128
F1
tp662
a(g133
F0
tp663
a(g139
F0
tp664
a(g145
F0.043478260869565216
tp665
a(g150
F0.041666666666666664
tp666
a(g156
F0.95833333333333337
tp667
a(g161
F1
tp668
a(g167
F0.97999999999999998
tp669
a(g173
F0
tp670
a(g179
F0.040816326530612242
tp671
a(g185
F1
tp672
a(g191
F0.97916666666666663
tp673
a(g197
F1
tp674
a(g203
F0.95652173913043481
tp675
a(g208
F0
tp676
a(g214
F0.95999999999999996
tp677
a(g220
F0
tp678
a(g225
F0
tp679
a(g230
F0
tp680
a(g234
F0
tp681
a(g239
F1
tp682
a(g244
F0.041666666666666664
tp683
a(g249
F0
tp684
a(g255
F0.02
tp685
a(g260
F0
tp686
a(g266
F0.063829787234042548
tp687
a(g272
F0.14583333333333334
tp688
a(g277
F1
tp689
a(g283
F0.020408163265306121
tp690
a(g289
F0
tp691
a(g294
F0.95652173913043481
tp692
a(g300
F0.8936170212765957
tp693
a(g305
F1
tp694
a(g311
F0.9375
tp695
a(g317
F1
tp696
a(g322
F1
tp697
a(g327
F0.041666666666666664
tp698
a(g331
F0.97872340425531912
tp699
a(g336
F0.0625
tp700
a(g340
F1
tp701
a(g345
F0
tp702
a(g350
F0.95833333333333337
tp703
a(g355
F0.068181818181818177
tp704
a(g361
F0.95652173913043481
tp705
a(g365
F1
tp706
a(g370
F0.042553191489361701
tp707
a(g376
F0.9375
tp708
a(g381
F0.95918367346938771
tp709
a(g386
F1
tp710
a(g391
F0.042553191489361701
tp711
a(g397
F0.069767441860465115
tp712
a(g401
F0
tp713
a(g406
F0.95833333333333337
tp714
a(g411
F0.95918367346938771
tp715
a(g416
F0.90909090909090906
tp716
a(g421
F1
tp717
a(g426
F1
tp718
a(g431
F0.97916666666666663
tp719
a(g436
F0
tp720
a(g441
F0.020833333333333332
tp721
a(g446
F0.14893617021276595
tp722
a(g450
F1
tp723
a(g454
F1
tp724
a(g459
F0.95652173913043481
tp725
a(g463
F0.89583333333333337
tp726
a(g467
F0
tp727
a(g473
F0
tp728
a(g477
F0.97872340425531912
tp729
a(g482
F0
tp730
a(g487
F0.93617021276595747
tp731
a(g493
F0
tp732
a(g499
F0.10638297872340426
tp733
a(g503
F0.95918367346938771
tp734
a(g508
F0
tp735
a(g514
F0.021276595744680851
tp736
a(g519
F0.95652173913043481
tp737
a(g524
F0.021276595744680851
tp738
a(g529
F0
tp739
a(g533
F0.97999999999999998
tp740
a(g537
F1
tp741
a(g543
F0
tp742
a(g548
F1
tp743
a(g553
F0.042553191489361701
tp744
a(g558
F0
tp745
a(g563
F0.95999999999999996
tp746
a(g568
F1
tp747
a(g573
F0
tp748
a(g577
F1
tp749
a(g583
F0.93333333333333335
tp750
a(g588
F0
tp751
a(g593
F0.063829787234042548
tp752
a(g598
F0.89583333333333337
tp753
a(g603
F0
tp754
a(g608
F0.020408163265306121
tp755
a(g612
F0
tp756
a(g617
F0.95918367346938771
tp757
a(g621
F0.021276595744680851
tp758
a(g626
F0.93333333333333335
tp759
a(g630
F1
tp760
a(g634
F0.93877551020408168
tp761
assS'ERR'
p762
(dp763
g4
(lp764
(g6
(g7
(I0
tS'b'
tRp765
(I1
(I3
tg10
I00
(lp766
(I0
I0
I1
I0
I2
tp767
ag373
aF0.6352213541666667
atbF0
tp768
a(g6
(g7
(I0
tS'b'
tRp769
(I1
(I3
tg10
I00
(lp770
g393
ag44
aF0.25624999999999998
atbF0
tp771
a(g6
(g7
(I0
tS'b'
tRp772
(I1
(I3
tg10
I00
(lp773
(I1
I0
I1
I2
I0
tp774
a(I1
I1
I0
I2
I1
tp775
aF0.038281249999999989
atbF1
tp776
a(g6
(g7
(I0
tS'b'
tRp777
(I1
(I3
tg10
I00
(lp778
g120
ag433
aF0.045312499999999978
atbF0
tp779
a(g6
(g7
(I0
tS'b'
tRp780
(I1
(I3
tg10
I00
(lp781
g81
ag176
aF0.018749999999999989
atbF1
tp782
a(g6
(g7
(I0
tS'b'
tRp783
(I1
(I3
tg10
I00
(lp784
g428
a(I2
I1
I0
I0
I0
tp785
aF0.41875000000000001
atbF0
tp786
a(g6
(g7
(I0
tS'b'
tRp787
(I1
(I3
tg10
I00
(lp788
g785
a(I2
I2
I0
I2
I1
tp789
aF0.074999999999999956
atbF0
tp790
a(g6
(g7
(I0
tS'b'
tRp791
(I1
(I3
tg10
I00
(lp792
(I0
I0
I1
I2
I2
tp793
ag114
aF0.033854166666666685
atbF0
tp794
a(g6
(g7
(I0
tS'b'
tRp795
(I1
(I3
tg10
I00
(lp796
g135
ag358
aF0.036914062499999956
atbF1
tp797
a(g6
(g7
(I0
tS'b'
tRp798
(I1
(I3
tg10
I00
(lp799
(I1
I0
I1
I0
I1
tp800
a(I2
I2
I2
I2
I0
tp801
aF0.52167968750000004
atbF1
tp802
a(g6
(g7
(I0
tS'b'
tRp803
(I1
(I3
tg10
I00
(lp804
(I1
I1
I2
I2
I1
tp805
ag269
aF0.0625
atbF1
tp806
a(g6
(g7
(I0
tS'b'
tRp807
(I1
(I3
tg10
I00
(lp808
g367
ag418
aF0.035937500000000011
atbF0
tp809
a(g6
(g7
(I0
tS'b'
tRp810
(I1
(I3
tg10
I00
(lp811
(I0
I0
I1
I0
I0
tp812
a(I2
I1
I1
I0
I0
tp813
aF0.71354166666666663
atbF1
tp814
a(g6
(g7
(I0
tS'b'
tRp815
(I1
(I3
tg10
I00
(lp816
(I0
I0
I0
I0
I2
tp817
ag120
aF0.65598958333333335
atbF0
tp818
a(g6
(g7
(I0
tS'b'
tRp819
(I1
(I3
tg10
I00
(lp820
g147
ag142
aF0.35390625000000003
atbF1
tp821
a(g6
(g7
(I0
tS'b'
tRp822
(I1
(I3
tg10
I00
(lp823
g590
ag86
aF0.16875000000000001
atbF1
tp824
a(g6
(g7
(I0
tS'b'
tRp825
(I1
(I3
tg10
I00
(lp826
g279
a(I2
I1
I1
I2
I1
tp827
aF0.51249999999999996
atbF1
tp828
a(g6
(g7
(I0
tS'b'
tRp829
(I1
(I3
tg10
I00
(lp830
g388
ag333
aF0.0017578124999999556
atbF0
tp831
a(g6
(g7
(I0
tS'b'
tRp832
(I1
(I3
tg10
I00
(lp833
g800
a(I0
I1
I2
I2
I0
tp834
aF0.0070312499999999889
atbF1
tp835
a(g6
(g7
(I0
tS'b'
tRp836
(I1
(I3
tg10
I00
(lp837
(I0
I1
I1
I2
I1
tp838
ag262
aF0.078906250000000011
atbF0
tp839
a(g6
(g7
(I0
tS'b'
tRp840
(I1
(I3
tg10
I00
(lp841
g838
ag158
aF0.53515625
atbF0
tp842
a(g6
(g7
(I0
tS'b'
tRp843
(I1
(I3
tg10
I00
(lp844
g44
ag813
aF0.265625
atbF1
tp845
a(g6
(g7
(I0
tS'b'
tRp846
(I1
(I3
tg10
I00
(lp847
g484
ag169
aF0.28125
atbF1
tp848
a(g6
(g7
(I0
tS'b'
tRp849
(I1
(I3
tg10
I00
(lp850
g86
ag39
aF0.046875
atbF1
tp851
a(g6
(g7
(I0
tS'b'
tRp852
(I1
(I3
tg10
I00
(lp853
(I1
I0
I1
I1
I0
tp854
a(I2
I0
I0
I1
I0
tp855
aF0.41796875
atbF0
tp856
a(g6
(g7
(I0
tS'b'
tRp857
(I1
(I3
tg10
I00
(lp858
(I1
I1
I2
I0
I0
tp859
ag236
aF0.0263671875
atbF0
tp860
a(g6
(g7
(I0
tS'b'
tRp861
(I1
(I3
tg10
I00
(lp862
g81
ag521
aF0.049999999999999989
atbF0
tp863
a(g6
(g7
(I0
tS'b'
tRp864
(I1
(I3
tg10
I00
(lp865
g75
ag570
aF0.21601562499999993
atbF0
tp866
a(g6
(g7
(I0
tS'b'
tRp867
(I1
(I3
tg10
I00
(lp868
g342
a(I1
I2
I1
I1
I1
tp869
aF0.17031249999999998
atbF1
tp870
a(g6
(g7
(I0
tS'b'
tRp871
(I1
(I3
tg10
I00
(lp872
g302
ag443
aF0.1283854166666667
atbF0
tp873
a(g6
(g7
(I0
tS'b'
tRp874
(I1
(I3
tg10
I00
(lp875
g812
ag13
aF0.3125
atbF0
tp876
a(g6
(g7
(I0
tS'b'
tRp877
(I1
(I3
tg10
I00
(lp878
g484
ag605
aF0.36562499999999998
atbF0
tp879
a(g6
(g7
(I0
tS'b'
tRp880
(I1
(I3
tg10
I00
(lp881
(I0
I2
I0
I0
I0
tp882
a(I1
I0
I1
I1
I2
tp883
aF0.035937500000000011
atbF1
tp884
a(g6
(g7
(I0
tS'b'
tRp885
(I1
(I3
tg10
I00
(lp886
g456
a(I2
I1
I0
I0
I1
tp887
aF0.50312500000000004
atbF0
tp888
a(g6
(g7
(I0
tS'b'
tRp889
(I1
(I3
tg10
I00
(lp890
g80
ag169
aF0.11562499999999998
atbF0
tp891
a(g6
(g7
(I0
tS'b'
tRp892
(I1
(I3
tg10
I00
(lp893
g194
a(I2
I2
I0
I1
I1
tp894
aF0.333984375
atbF1
tp895
a(g6
(g7
(I0
tS'b'
tRp896
(I1
(I3
tg10
I00
(lp897
(I1
I0
I0
I1
I0
tp898
ag859
aF0.1875
atbF0
tp899
a(g6
(g7
(I0
tS'b'
tRp900
(I1
(I3
tg10
I00
(lp901
g20
ag263
aF0.1015625
atbF1
tp902
a(g6
(g7
(I0
tS'b'
tRp903
(I1
(I3
tg10
I00
(lp904
g236
ag357
aF0.294921875
atbF1
tp905
a(g6
(g7
(I0
tS'b'
tRp906
(I1
(I3
tg10
I00
(lp907
g479
ag182
aF0.033919270833333348
atbF1
tp908
a(g6
(g7
(I0
tS'b'
tRp909
(I1
(I3
tg10
I00
(lp910
g216
a(I1
I2
I0
I1
I2
tp911
aF0.14218750000000002
atbF1
tp912
a(g6
(g7
(I0
tS'b'
tRp913
(I1
(I3
tg10
I00
(lp914
g308
a(I1
I2
I1
I2
I2
tp915
aF0.15351562499999999
atbF1
tp916
a(g6
(g7
(I0
tS'b'
tRp917
(I1
(I3
tg10
I00
(lp918
(I0
I2
I0
I0
I2
tp919
a(I0
I2
I2
I1
I1
tp920
aF0.03125
atbF1
tp921
a(g6
(g7
(I0
tS'b'
tRp922
(I1
(I3
tg10
I00
(lp923
g200
a(I2
I2
I0
I1
I2
tp924
aF0.40546875000000004
atbF1
tp925
a(g6
(g7
(I0
tS'b'
tRp926
(I1
(I3
tg10
I00
(lp927
g291
a(I2
I0
I1
I0
I2
tp928
aF0.21790364583333333
atbF0
tp929
a(g6
(g7
(I0
tS'b'
tRp930
(I1
(I3
tg10
I00
(lp931
(I1
I0
I1
I1
I1
tp932
ag555
aF0.453125
atbF0
tp933
a(g6
(g7
(I0
tS'b'
tRp934
(I1
(I3
tg10
I00
(lp935
g251
a(I1
I2
I0
I0
I1
tp936
aF0.27500000000000002
atbF0
tp937
a(g6
(g7
(I0
tS'b'
tRp938
(I1
(I3
tg10
I00
(lp939
g855
ag158
aF0.069531250000000044
atbF1
tp940
a(g6
(g7
(I0
tS'b'
tRp941
(I1
(I3
tg10
I00
(lp942
g579
ag222
aF0.23229166666666667
atbF0
tp943
a(g6
(g7
(I0
tS'b'
tRp944
(I1
(I3
tg10
I00
(lp945
(I0
I0
I2
I1
I2
tp946
ag211
aF0.50312500000000004
atbF1
tp947
a(g6
(g7
(I0
tS'b'
tRp948
(I1
(I3
tg10
I00
(lp949
g324
a(I2
I2
I2
I1
I1
tp950
aF0.41875000000000001
atbF0
tp951
a(g6
(g7
(I0
tS'b'
tRp952
(I1
(I3
tg10
I00
(lp953
(I1
I1
I1
I2
I0
tp954
ag135
aF0.33027343750000004
atbF0
tp955
a(g6
(g7
(I0
tS'b'
tRp956
(I1
(I3
tg10
I00
(lp957
g393
ag57
aF0.31367187499999993
atbF0
tp958
a(g6
(g7
(I0
tS'b'
tRp959
(I1
(I3
tg10
I00
(lp960
(I2
I1
I2
I1
I2
tp961
ag109
aF0.025390625
atbF0
tp962
a(g6
(g7
(I0
tS'b'
tRp963
(I1
(I3
tg10
I00
(lp964
g164
ag800
aF0.0093750000000000222
atbF1
tp965
a(g6
(g7
(I0
tS'b'
tRp966
(I1
(I3
tg10
I00
(lp967
g911
a(I2
I0
I1
I2
I2
tp968
aF0.24895833333333339
atbF0
tp969
a(g6
(g7
(I0
tS'b'
tRp970
(I1
(I3
tg10
I00
(lp971
g38
ag859
aF0.140625
atbF0
tp972
a(g6
(g7
(I0
tS'b'
tRp973
(I1
(I3
tg10
I00
(lp974
(I0
I0
I0
I2
I0
tp975
ag313
aF0.012500000000000011
atbF0
tp976
a(g6
(g7
(I0
tS'b'
tRp977
(I1
(I3
tg10
I00
(lp978
(I1
I1
I1
I0
I2
tp979
ag44
aF0.077343749999999989
atbF1
tp980
a(g6
(g7
(I0
tS'b'
tRp981
(I1
(I3
tg10
I00
(lp982
g623
ag413
aF0.19921875
atbF1
tp983
a(g6
(g7
(I0
tS'b'
tRp984
(I1
(I3
tg10
I00
(lp985
g817
ag505
aF0.66640624999999998
atbF0
tp986
a(g6
(g7
(I0
tS'b'
tRp987
(I1
(I3
tg10
I00
(lp988
g946
ag153
aF0.28437499999999999
atbF0
tp989
a(g6
(g7
(I0
tS'b'
tRp990
(I1
(I3
tg10
I00
(lp991
g854
ag285
aF0.21171874999999996
atbF0
tp992
a(g6
(g7
(I0
tS'b'
tRp993
(I1
(I3
tg10
I00
(lp994
g119
ag394
aF0.41250000000000003
atbF0
tp995
a(g6
(g7
(I0
tS'b'
tRp996
(I1
(I3
tg10
I00
(lp997
(I0
I1
I2
I1
I0
tp998
ag637
aF0.12265625000000002
atbF1
tp999
a(g6
(g7
(I0
tS'b'
tRp1000
(I1
(I3
tg10
I00
(lp1001
g590
a(I2
I1
I0
I0
I2
tp1002
aF0.68437499999999996
atbF0
tp1003
a(g6
(g7
(I0
tS'b'
tRp1004
(I1
(I3
tg10
I00
(lp1005
g280
ag539
aF0.059765625000000044
atbF0
tp1006
a(g6
(g7
(I0
tS'b'
tRp1007
(I1
(I3
tg10
I00
(lp1008
g946
ag200
aF0.15546874999999999
atbF0
tp1009
a(g6
(g7
(I0
tS'b'
tRp1010
(I1
(I3
tg10
I00
(lp1011
g286
ag51
aF0.0078125
atbF0
tp1012
a(g6
(g7
(I0
tS'b'
tRp1013
(I1
(I3
tg10
I00
(lp1014
(I0
I1
I2
I0
I1
tp1015
ag882
aF0.053124999999999978
atbF1
tp1016
a(g6
(g7
(I0
tS'b'
tRp1017
(I1
(I3
tg10
I00
(lp1018
g911
a(I2
I2
I2
I1
I2
tp1019
aF0.29804687499999993
atbF1
tp1020
a(g6
(g7
(I0
tS'b'
tRp1021
(I1
(I3
tg10
I00
(lp1022
(I1
I1
I2
I1
I0
tp1023
ag539
aF0.015820312500000044
atbF0
tp1024
a(g6
(g7
(I0
tS'b'
tRp1025
(I1
(I3
tg10
I00
(lp1026
g526
ag954
aF0.20722656249999999
atbF1
tp1027
a(g6
(g7
(I0
tS'b'
tRp1028
(I1
(I3
tg10
I00
(lp1029
g92
ag883
aF0.16093750000000001
atbF1
tp1030
a(g6
(g7
(I0
tS'b'
tRp1031
(I1
(I3
tg10
I00
(lp1032
(I0
I1
I0
I0
I1
tp1033
ag883
aF0.24843750000000001
atbF0
tp1034
a(g6
(g7
(I0
tS'b'
tRp1035
(I1
(I3
tg10
I00
(lp1036
g979
a(I2
I2
I1
I0
I0
tp1037
aF0.39505208333333336
atbF0
tp1038
a(g6
(g7
(I0
tS'b'
tRp1039
(I1
(I3
tg10
I00
(lp1040
g241
ag12
aF0.028125000000000011
atbF0
tp1041
a(g6
(g7
(I0
tS'b'
tRp1042
(I1
(I3
tg10
I00
(lp1043
g894
ag333
aF0.0077473958333333925
atbF0
tp1044
a(g6
(g7
(I0
tS'b'
tRp1045
(I1
(I3
tg10
I00
(lp1046
g142
ag394
aF0.070572916666666652
atbF1
tp1047
a(g6
(g7
(I0
tS'b'
tRp1048
(I1
(I3
tg10
I00
(lp1049
(I0
I1
I0
I2
I1
tp1050
ag158
aF0.56015625000000002
atbF1
tp1051
a(g6
(g7
(I0
tS'b'
tRp1052
(I1
(I3
tg10
I00
(lp1053
g187
ag565
aF0.084374999999999978
atbF0
tp1054
a(g6
(g7
(I0
tS'b'
tRp1055
(I1
(I3
tg10
I00
(lp1056
g898
a(I0
I2
I0
I0
I1
tp1057
aF0.090625000000000011
atbF0
tp1058
a(g6
(g7
(I0
tS'b'
tRp1059
(I1
(I3
tg10
I00
(lp1060
g869
ag286
aF0.26406249999999998
atbF1
tp1061
a(g6
(g7
(I0
tS'b'
tRp1062
(I1
(I3
tg10
I00
(lp1063
g623
ag20
aF0.13515624999999998
atbF1
tp1064
a(g6
(g7
(I0
tS'b'
tRp1065
(I1
(I3
tg10
I00
(lp1066
g1015
ag342
aF0.068749999999999978
atbF0
tp1067
a(g6
(g7
(I0
tS'b'
tRp1068
(I1
(I3
tg10
I00
(lp1069
g637
ag33
aF0.13593749999999993
atbF1
tp1070
a(g6
(g7
(I0
tS'b'
tRp1071
(I1
(I3
tg10
I00
(lp1072
g774
ag119
aF0.022656249999999989
atbF1
tp1073
a(g6
(g7
(I0
tS'b'
tRp1074
(I1
(I3
tg10
I00
(lp1075
g428
a(I0
I2
I2
I0
I0
tp1076
aF0.075000000000000011
atbF1
tp1077
a(g6
(g7
(I0
tS'b'
tRp1078
(I1
(I3
tg10
I00
(lp1079
g961
ag182
aF0.015559895833333393
atbF1
tp1080
a(g6
(g7
(I0
tS'b'
tRp1081
(I1
(I3
tg10
I00
(lp1082
g1023
ag505
aF0.3232421875
atbF1
tp1083
a(g6
(g7
(I0
tS'b'
tRp1084
(I1
(I3
tg10
I00
(lp1085
g142
a(I2
I2
I2
I0
I0
tp1086
aF0.07682291666666663
atbF1
tp1087
a(g6
(g7
(I0
tS'b'
tRp1088
(I1
(I3
tg10
I00
(lp1089
g163
a(I1
I1
I2
I1
I1
tp1090
aF0.18593749999999998
atbF0
tp1091
a(g6
(g7
(I0
tS'b'
tRp1092
(I1
(I3
tg10
I00
(lp1093
g1057
a(I2
I1
I2
I2
I2
tp1094
aF0.45117187499999994
atbF0
tp1095
a(g6
(g7
(I0
tS'b'
tRp1096
(I1
(I3
tg10
I00
(lp1097
(I0
I2
I1
I0
I1
tp1098
ag950
aF0.45572916666666669
atbF1
tp1099
a(g6
(g7
(I0
tS'b'
tRp1100
(I1
(I3
tg10
I00
(lp1101
(I2
I1
I0
I1
I1
tp1102
a(I2
I2
I0
I1
I0
tp1103
aF0.047656249999999956
atbF1
tp1104
a(g6
(g7
(I0
tS'b'
tRp1105
(I1
(I3
tg10
I00
(lp1106
g393
ag130
aF0.57187500000000002
atbF0
tp1107
a(g6
(g7
(I0
tS'b'
tRp1108
(I1
(I3
tg10
I00
(lp1109
g614
ag1103
aF0.4306640625
atbF1
tp1110
a(g6
(g7
(I0
tS'b'
tRp1111
(I1
(I3
tg10
I00
(lp1112
g99
ag63
aF0.39947916666666672
atbF1
tp1113
a(g6
(g7
(I0
tS'b'
tRp1114
(I1
(I3
tg10
I00
(lp1115
g169
ag394
aF0.47187500000000004
atbF0
tp1116
a(g6
(g7
(I0
tS'b'
tRp1117
(I1
(I3
tg10
I00
(lp1118
g854
ag302
aF0.090364583333333304
atbF1
tp1119
a(g6
(g7
(I0
tS'b'
tRp1120
(I1
(I3
tg10
I00
(lp1121
g854
a(I1
I2
I2
I0
I2
tp1122
aF0.23750000000000004
atbF0
tp1123
a(g6
(g7
(I0
tS'b'
tRp1124
(I1
(I3
tg10
I00
(lp1125
g817
ag12
aF0.0083333333333333315
atbF1
tp1126
a(g6
(g7
(I0
tS'b'
tRp1127
(I1
(I3
tg10
I00
(lp1128
g99
a(I2
I2
I1
I1
I1
tp1129
aF0.4296875
atbF1
tp1130
a(g6
(g7
(I0
tS'b'
tRp1131
(I1
(I3
tg10
I00
(lp1132
(I1
I0
I0
I2
I1
tp1133
ag1086
aF0.45937499999999998
atbF1
tp1134
a(g6
(g7
(I0
tS'b'
tRp1135
(I1
(I3
tg10
I00
(lp1136
g236
ag388
aF0.34524739583333341
atbF0
tp1137
a(g6
(g7
(I0
tS'b'
tRp1138
(I1
(I3
tg10
I00
(lp1139
(I0
I2
I1
I2
I1
tp1140
ag142
aF0.34921875000000008
atbF0
tp1141
a(g6
(g7
(I0
tS'b'
tRp1142
(I1
(I3
tg10
I00
(lp1143
g1057
ag961
aF0.44882812499999997
atbF1
tp1144
a(g6
(g7
(I0
tS'b'
tRp1145
(I1
(I3
tg10
I00
(lp1146
g510
a(I0
I0
I2
I2
I0
tp1147
aF0.07421875
atbF1
tp1148
a(g6
(g7
(I0
tS'b'
tRp1149
(I1
(I3
tg10
I00
(lp1150
(I1
I2
I2
I2
I1
tp1151
ag827
aF0.23749999999999993
atbF1
tp1152
a(g6
(g7
(I0
tS'b'
tRp1153
(I1
(I3
tg10
I00
(lp1154
g998
ag125
aF0.53867187500000002
atbF1
tp1155
a(g6
(g7
(I0
tS'b'
tRp1156
(I1
(I3
tg10
I00
(lp1157
g199
ag817
aF0.14999999999999999
atbF1
tp1158
a(g6
(g7
(I0
tS'b'
tRp1159
(I1
(I3
tg10
I00
(lp1160
g1140
ag403
aF0.39088541666666671
atbF1
tp1161
a(g6
(g7
(I0
tS'b'
tRp1162
(I1
(I3
tg10
I00
(lp1163
g540
ag125
aF0.048828125
atbF0
tp1164
a(g6
(g7
(I0
tS'b'
tRp1165
(I1
(I3
tg10
I00
(lp1166
g373
ag333
aF0.02669270833333337
atbF1
tp1167
a(g6
(g7
(I0
tS'b'
tRp1168
(I1
(I3
tg10
I00
(lp1169
g469
a(I0
I0
I2
I2
I1
tp1170
aF0.12812499999999999
atbF1
tp1171
a(g6
(g7
(I0
tS'b'
tRp1172
(I1
(I3
tg10
I00
(lp1173
g800
ag98
aF0.03125
atbF1
tp1174
a(g6
(g7
(I0
tS'b'
tRp1175
(I1
(I3
tg10
I00
(lp1176
g834
ag614
aF0.0693359375
atbF0
tp1177
a(g6
(g7
(I0
tS'b'
tRp1178
(I1
(I3
tg10
I00
(lp1179
g637
ag347
aF0.41093749999999996
atbF0
tp1180
a(g6
(g7
(I0
tS'b'
tRp1181
(I1
(I3
tg10
I00
(lp1182
g793
ag1002
aF0.55729166666666663
atbF0
tp1183
a(g6
(g7
(I0
tS'b'
tRp1184
(I1
(I3
tg10
I00
(lp1185
g1133
ag227
aF0.42656249999999996
atbF1
tp1186
asg640
(lp1187
(g765
F1
tp1188
a(g769
F0
tp1189
a(g772
F0
tp1190
a(g777
F0.020833333333333332
tp1191
a(g780
F1
tp1192
a(g783
F1
tp1193
a(g787
F0
tp1194
a(g791
F0.97959183673469385
tp1195
a(g795
F0.95652173913043481
tp1196
a(g798
F0.020833333333333332
tp1197
a(g803
F0.88
tp1198
a(g807
F1
tp1199
a(g810
F1
tp1200
a(g815
F1
tp1201
a(g819
F0.95833333333333337
tp1202
a(g822
F1
tp1203
a(g825
F0
tp1204
a(g829
F0.95652173913043481
tp1205
a(g832
F0
tp1206
a(g836
F1
tp1207
a(g840
F1
tp1208
a(g843
F0
tp1209
a(g846
F0
tp1210
a(g849
F0
tp1211
a(g852
F0
tp1212
a(g857
F1
tp1213
a(g861
F1
tp1214
a(g864
F1
tp1215
a(g867
F1
tp1216
a(g871
F0.083333333333333329
tp1217
a(g874
F1
tp1218
a(g877
F1
tp1219
a(g880
F1
tp1220
a(g885
F0
tp1221
a(g889
F1
tp1222
a(g892
F0.021739130434782608
tp1223
a(g896
F0
tp1224
a(g900
F0.97872340425531912
tp1225
a(g903
F0.041666666666666664
tp1226
a(g906
F1
tp1227
a(g909
F0
tp1228
a(g913
F0.125
tp1229
a(g917
F0.020833333333333332
tp1230
a(g922
F0.93877551020408168
tp1231
a(g926
F0
tp1232
a(g930
F0
tp1233
a(g934
F1
tp1234
a(g938
F0
tp1235
a(g941
F1
tp1236
a(g944
F1
tp1237
a(g948
F0.021739130434782608
tp1238
a(g952
F0
tp1239
a(g956
F0.021739130434782608
tp1240
a(g959
F0.020833333333333332
tp1241
a(g963
F0
tp1242
a(g966
F0.041666666666666664
tp1243
a(g970
F1
tp1244
a(g973
F1
tp1245
a(g977
F0
tp1246
a(g981
F0.91304347826086951
tp1247
a(g984
F0
tp1248
a(g987
F0.95652173913043481
tp1249
a(g990
F1
tp1250
a(g993
F0
tp1251
a(g996
F1
tp1252
a(g1000
F1
tp1253
a(g1004
F0.89583333333333337
tp1254
a(g1007
F0.97916666666666663
tp1255
a(g1010
F0.059999999999999998
tp1256
a(g1013
F0
tp1257
a(g1017
F0.085106382978723402
tp1258
a(g1021
F0
tp1259
a(g1025
F0
tp1260
a(g1028
F0
tp1261
a(g1031
F1
tp1262
a(g1035
F0.041666666666666664
tp1263
a(g1039
F1
tp1264
a(g1042
F0.95833333333333337
tp1265
a(g1045
F0.020833333333333332
tp1266
a(g1048
F0.97727272727272729
tp1267
a(g1052
F1
tp1268
a(g1055
F0
tp1269
a(g1059
F0.97999999999999998
tp1270
a(g1062
F0.95744680851063835
tp1271
a(g1065
F0
tp1272
a(g1068
F0.95652173913043481
tp1273
a(g1071
F1
tp1274
a(g1074
F0
tp1275
a(g1078
F1
tp1276
a(g1081
F0.020408163265306121
tp1277
a(g1084
F0.95652173913043481
tp1278
a(g1088
F0.02
tp1279
a(g1092
F0.069767441860465115
tp1280
a(g1096
F1
tp1281
a(g1100
F0
tp1282
a(g1105
F1
tp1283
a(g1108
F0.020833333333333332
tp1284
a(g1111
F1
tp1285
a(g1114
F1
tp1286
a(g1117
F0.95652173913043481
tp1287
a(g1120
F0.020833333333333332
tp1288
a(g1124
F0
tp1289
a(g1127
F0.95833333333333337
tp1290
a(g1131
F0
tp1291
a(g1135
F0.066666666666666666
tp1292
a(g1138
F0.95744680851063835
tp1293
a(g1142
F0
tp1294
a(g1145
F0
tp1295
a(g1149
F0.93999999999999995
tp1296
a(g1153
F0.95652173913043481
tp1297
a(g1156
F0
tp1298
a(g1159
F0.91304347826086951
tp1299
a(g1162
F0.022222222222222223
tp1300
a(g1165
F0.085106382978723402
tp1301
a(g1168
F0
tp1302
a(g1172
F0
tp1303
a(g1175
F0.065217391304347824
tp1304
a(g1178
F0.022727272727272728
tp1305
a(g1181
F1
tp1306
a(g1184
F0.97959183673469385
tp1307
assS'RBP'
p1308
(dp1309
g4
(lp1310
(g6
(g7
(I0
tS'b'
tRp1311
(I1
(I3
tg10
I00
(lp1312
g378
ag347
aF0.30400000000000016
atbF0
tp1313
a(g6
(g7
(I0
tS'b'
tRp1314
(I1
(I3
tg10
I00
(lp1315
g1103
ag1019
aF0.41984000000000021
atbF0
tp1316
a(g6
(g7
(I0
tS'b'
tRp1317
(I1
(I3
tg10
I00
(lp1318
g785
ag394
aF0.32384000000000002
atbF1
tp1319
a(g6
(g7
(I0
tS'b'
tRp1320
(I1
(I3
tg10
I00
(lp1321
g793
a(I1
I0
I2
I2
I0
tp1322
aF0.16415999999999997
atbF1
tp1323
a(g6
(g7
(I0
tS'b'
tRp1324
(I1
(I3
tg10
I00
(lp1325
(I0
I0
I1
I0
I1
tp1326
ag367
aF0.28191999999999984
atbF1
tp1327
a(g6
(g7
(I0
tS'b'
tRp1328
(I1
(I3
tg10
I00
(lp1329
g81
a(I0
I2
I0
I2
I1
tp1330
aF0.062400000000000011
atbF1
tp1331
a(g6
(g7
(I0
tS'b'
tRp1332
(I1
(I3
tg10
I00
(lp1333
g163
ag227
aF0.69664000000000004
atbF0
tp1334
a(g6
(g7
(I0
tS'b'
tRp1335
(I1
(I3
tg10
I00
(lp1336
g142
ag182
aF0.32000000000000006
atbF1
tp1337
a(g6
(g7
(I0
tS'b'
tRp1338
(I1
(I3
tg10
I00
(lp1339
g998
ag605
aF0.10144000000000009
atbF1
tp1340
a(g6
(g7
(I0
tS'b'
tRp1341
(I1
(I3
tg10
I00
(lp1342
g585
ag93
aF0.31807999999999981
atbF1
tp1343
a(g6
(g7
(I0
tS'b'
tRp1344
(I1
(I3
tg10
I00
(lp1345
g169
ag928
aF0.22560000000000002
atbF1
tp1346
a(g6
(g7
(I0
tS'b'
tRp1347
(I1
(I3
tg10
I00
(lp1348
(I2
I0
I0
I2
I2
tp1349
ag109
aF0.37120000000000009
atbF0
tp1350
a(g6
(g7
(I0
tS'b'
tRp1351
(I1
(I3
tg10
I00
(lp1352
(I1
I0
I0
I1
I1
tp1353
a(I1
I2
I1
I0
I0
tp1354
aF0.26367999999999997
atbF0
tp1355
a(g6
(g7
(I0
tS'b'
tRp1356
(I1
(I3
tg10
I00
(lp1357
g13
ag570
aF0.11583999999999994
atbF0
tp1358
a(g6
(g7
(I0
tS'b'
tRp1359
(I1
(I3
tg10
I00
(lp1360
g319
ag93
aF0.53408
atbF1
tp1361
a(g6
(g7
(I0
tS'b'
tRp1362
(I1
(I3
tg10
I00
(lp1363
g257
ag496
aF0.065599999999999881
atbF1
tp1364
a(g6
(g7
(I0
tS'b'
tRp1365
(I1
(I3
tg10
I00
(lp1366
g505
ag1151
aF0.30432000000000003
atbF1
tp1367
a(g6
(g7
(I0
tS'b'
tRp1368
(I1
(I3
tg10
I00
(lp1369
g262
ag413
aF0.31743999999999989
atbF0
tp1370
a(g6
(g7
(I0
tS'b'
tRp1371
(I1
(I3
tg10
I00
(lp1372
g302
ag57
aF0.32799999999999996
atbF0
tp1373
a(g6
(g7
(I0
tS'b'
tRp1374
(I1
(I3
tg10
I00
(lp1375
g545
ag378
aF0.49791999999999992
atbF0
tp1376
a(g6
(g7
(I0
tS'b'
tRp1377
(I1
(I3
tg10
I00
(lp1378
g119
ag911
aF0.12831999999999999
atbF1
tp1379
a(g6
(g7
(I0
tS'b'
tRp1380
(I1
(I3
tg10
I00
(lp1381
g490
ag1019
aF0.26144000000000012
atbF1
tp1382
a(g6
(g7
(I0
tS'b'
tRp1383
(I1
(I3
tg10
I00
(lp1384
g800
ag158
aF0.56991999999999987
atbF0
tp1385
a(g6
(g7
(I0
tS'b'
tRp1386
(I1
(I3
tg10
I00
(lp1387
g296
ag636
aF0.017599999999999949
atbF0
tp1388
a(g6
(g7
(I0
tS'b'
tRp1389
(I1
(I3
tg10
I00
(lp1390
g936
ag911
aF0.18432000000000004
atbF1
tp1391
a(g6
(g7
(I0
tS'b'
tRp1392
(I1
(I3
tg10
I00
(lp1393
g911
ag585
aF0.1584000000000001
atbF0
tp1394
a(g6
(g7
(I0
tS'b'
tRp1395
(I1
(I3
tg10
I00
(lp1396
g1023
ag120
aF0.01440000000000019
atbF1
tp1397
a(g6
(g7
(I0
tS'b'
tRp1398
(I1
(I3
tg10
I00
(lp1399
g32
ag63
aF0.25984000000000007
atbF0
tp1400
a(g6
(g7
(I0
tS'b'
tRp1401
(I1
(I3
tg10
I00
(lp1402
g158
a(I2
I2
I2
I0
I1
tp1403
aF0.078080000000000149
atbF1
tp1404
a(g6
(g7
(I0
tS'b'
tRp1405
(I1
(I3
tg10
I00
(lp1406
g1129
ag217
aF0.024320000000000119
atbF1
tp1407
a(g6
(g7
(I0
tS'b'
tRp1408
(I1
(I3
tg10
I00
(lp1409
g854
ag147
aF0.28383999999999993
atbF0
tp1410
a(g6
(g7
(I0
tS'b'
tRp1411
(I1
(I3
tg10
I00
(lp1412
g187
ag623
aF0.13663999999999998
atbF1
tp1413
a(g6
(g7
(I0
tS'b'
tRp1414
(I1
(I3
tg10
I00
(lp1415
g859
ag928
aF0.075840000000000019
atbF0
tp1416
a(g6
(g7
(I0
tS'b'
tRp1417
(I1
(I3
tg10
I00
(lp1418
g805
ag801
aF0.27807999999999999
atbF1
tp1419
a(g6
(g7
(I0
tS'b'
tRp1420
(I1
(I3
tg10
I00
(lp1421
g280
ag87
aF0.11711999999999989
atbF0
tp1422
a(g6
(g7
(I0
tS'b'
tRp1423
(I1
(I3
tg10
I00
(lp1424
g590
ag1354
aF0.48799999999999993
atbF0
tp1425
a(g6
(g7
(I0
tS'b'
tRp1426
(I1
(I3
tg10
I00
(lp1427
g199
ag1403
aF1.05792
atbF1
tp1428
a(g6
(g7
(I0
tS'b'
tRp1429
(I1
(I3
tg10
I00
(lp1430
g545
ag954
aF0.40608
atbF0
tp1431
a(g6
(g7
(I0
tS'b'
tRp1432
(I1
(I3
tg10
I00
(lp1433
g1050
a(I1
I2
I2
I0
I1
tp1434
aF0.41119999999999979
atbF1
tp1435
a(g6
(g7
(I0
tS'b'
tRp1436
(I1
(I3
tg10
I00
(lp1437
g56
ag210
aF0.48799999999999999
atbF1
tp1438
a(g6
(g7
(I0
tS'b'
tRp1439
(I1
(I3
tg10
I00
(lp1440
g898
ag205
aF0.54431999999999992
atbF1
tp1441
a(g6
(g7
(I0
tS'b'
tRp1442
(I1
(I3
tg10
I00
(lp1443
g834
ag1090
aF0.1795199999999999
atbF0
tp1444
a(g6
(g7
(I0
tS'b'
tRp1445
(I1
(I3
tg10
I00
(lp1446
g1057
ag854
aF0.028480000000000005
atbF0
tp1447
a(g6
(g7
(I0
tS'b'
tRp1448
(I1
(I3
tg10
I00
(lp1449
g21
ag924
aF0.12959999999999994
atbF0
tp1450
a(g6
(g7
(I0
tS'b'
tRp1451
(I1
(I3
tg10
I00
(lp1452
g352
ag827
aF0.49280000000000002
atbF1
tp1453
a(g6
(g7
(I0
tS'b'
tRp1454
(I1
(I3
tg10
I00
(lp1455
(I1
I2
I1
I1
I0
tp1456
ag968
aF0.14624000000000015
atbF1
tp1457
a(g6
(g7
(I0
tS'b'
tRp1458
(I1
(I3
tg10
I00
(lp1459
g408
ag378
aF0.20031999999999994
atbF0
tp1460
a(g6
(g7
(I0
tS'b'
tRp1461
(I1
(I3
tg10
I00
(lp1462
g114
ag1102
aF0.19007999999999992
atbF1
tp1463
a(g6
(g7
(I0
tS'b'
tRp1464
(I1
(I3
tg10
I00
(lp1465
g490
ag950
aF0.17952000000000012
atbF0
tp1466
a(g6
(g7
(I0
tS'b'
tRp1467
(I1
(I3
tg10
I00
(lp1468
g193
ag595
aF0.47392000000000001
atbF1
tp1469
a(g6
(g7
(I0
tS'b'
tRp1470
(I1
(I3
tg10
I00
(lp1471
(I0
I2
I1
I2
I0
tp1472
ag373
aF0.26559999999999995
atbF0
tp1473
a(g6
(g7
(I0
tS'b'
tRp1474
(I1
(I3
tg10
I00
(lp1475
g1354
ag152
aF0.074239999999999973
atbF1
tp1476
a(g6
(g7
(I0
tS'b'
tRp1477
(I1
(I3
tg10
I00
(lp1478
g489
ag801
aF0.36480000000000001
atbF0
tp1479
a(g6
(g7
(I0
tS'b'
tRp1480
(I1
(I3
tg10
I00
(lp1481
g164
ag954
aF0.092480000000000007
atbF1
tp1482
a(g6
(g7
(I0
tS'b'
tRp1483
(I1
(I3
tg10
I00
(lp1484
g570
ag789
aF0.44287999999999994
atbF0
tp1485
a(g6
(g7
(I0
tS'b'
tRp1486
(I1
(I3
tg10
I00
(lp1487
g80
ag211
aF0.23999999999999994
atbF0
tp1488
a(g6
(g7
(I0
tS'b'
tRp1489
(I1
(I3
tg10
I00
(lp1490
g854
a(I2
I1
I1
I0
I1
tp1491
aF0.33951999999999988
atbF0
tp1492
a(g6
(g7
(I0
tS'b'
tRp1493
(I1
(I3
tg10
I00
(lp1494
g104
ag152
aF0.39839999999999992
atbF0
tp1495
a(g6
(g7
(I0
tS'b'
tRp1496
(I1
(I3
tg10
I00
(lp1497
g579
ag27
aF0.32319999999999993
atbF1
tp1498
a(g6
(g7
(I0
tS'b'
tRp1499
(I1
(I3
tg10
I00
(lp1500
(I2
I0
I0
I1
I2
tp1501
ag470
aF0.26239999999999997
atbF0
tp1502
a(g6
(g7
(I0
tS'b'
tRp1503
(I1
(I3
tg10
I00
(lp1504
g236
ag286
aF0.12192000000000003
atbF0
tp1505
a(g6
(g7
(I0
tS'b'
tRp1506
(I1
(I3
tg10
I00
(lp1507
g252
ag227
aF0.32799999999999996
atbF1
tp1508
a(g6
(g7
(I0
tS'b'
tRp1509
(I1
(I3
tg10
I00
(lp1510
g324
ag479
aF0.2255999999999998
atbF0
tp1511
a(g6
(g7
(I0
tS'b'
tRp1512
(I1
(I3
tg10
I00
(lp1513
g169
ag1122
aF0.47360000000000002
atbF1
tp1514
a(g6
(g7
(I0
tS'b'
tRp1515
(I1
(I3
tg10
I00
(lp1516
g268
ag333
aF0.55999999999999983
atbF0
tp1517
a(g6
(g7
(I0
tS'b'
tRp1518
(I1
(I3
tg10
I00
(lp1519
g1330
a(I0
I2
I2
I1
I2
tp1520
aF0.23551999999999995
atbF0
tp1521
a(g6
(g7
(I0
tS'b'
tRp1522
(I1
(I3
tg10
I00
(lp1523
g13
ag614
aF0.14239999999999997
atbF0
tp1524
a(g6
(g7
(I0
tS'b'
tRp1525
(I1
(I3
tg10
I00
(lp1526
g104
ag539
aF0.55839999999999979
atbF0
tp1527
a(g6
(g7
(I0
tS'b'
tRp1528
(I1
(I3
tg10
I00
(lp1529
g1349
ag63
aF0.15359999999999996
atbF1
tp1530
a(g6
(g7
(I0
tS'b'
tRp1531
(I1
(I3
tg10
I00
(lp1532
g623
ag153
aF0.15135999999999994
atbF1
tp1533
a(g6
(g7
(I0
tS'b'
tRp1534
(I1
(I3
tg10
I00
(lp1535
g170
a(I2
I2
I1
I1
I2
tp1536
aF0.4575999999999999
atbF1
tp1537
a(g6
(g7
(I0
tS'b'
tRp1538
(I1
(I3
tg10
I00
(lp1539
g834
ag74
aF0.20384000000000002
atbF0
tp1540
a(g6
(g7
(I0
tS'b'
tRp1541
(I1
(I3
tg10
I00
(lp1542
(I0
I0
I0
I1
I0
tp1543
ag87
aF0.79551999999999978
atbF1
tp1544
a(g6
(g7
(I0
tS'b'
tRp1545
(I1
(I3
tg10
I00
(lp1546
g510
ag352
aF0.091519999999999935
atbF0
tp1547
a(g6
(g7
(I0
tS'b'
tRp1548
(I1
(I3
tg10
I00
(lp1549
g915
a(I2
I2
I2
I1
I0
tp1550
aF0.061760000000000037
atbF0
tp1551
a(g6
(g7
(I0
tS'b'
tRp1552
(I1
(I3
tg10
I00
(lp1553
(I2
I1
I0
I2
I0
tp1554
ag894
aF0.13952000000000009
atbF1
tp1555
a(g6
(g7
(I0
tS'b'
tRp1556
(I1
(I3
tg10
I00
(lp1557
g817
ag358
aF0.85695999999999972
atbF0
tp1558
a(g6
(g7
(I0
tS'b'
tRp1559
(I1
(I3
tg10
I00
(lp1560
g176
ag74
aF0.23839999999999995
atbF0
tp1561
a(g6
(g7
(I0
tS'b'
tRp1562
(I1
(I3
tg10
I00
(lp1563
g263
ag1354
aF0.025600000000000067
atbF1
tp1564
a(g6
(g7
(I0
tS'b'
tRp1565
(I1
(I3
tg10
I00
(lp1566
g1057
ag216
aF0.1228800000000001
atbF1
tp1567
a(g6
(g7
(I0
tS'b'
tRp1568
(I1
(I3
tg10
I00
(lp1569
g62
ag119
aF0.089280000000000026
atbF1
tp1570
a(g6
(g7
(I0
tS'b'
tRp1571
(I1
(I3
tg10
I00
(lp1572
g246
ag950
aF0.45760000000000012
atbF1
tp1573
a(g6
(g7
(I0
tS'b'
tRp1574
(I1
(I3
tg10
I00
(lp1575
g114
ag1086
aF0.42176000000000002
atbF1
tp1576
a(g6
(g7
(I0
tS'b'
tRp1577
(I1
(I3
tg10
I00
(lp1578
g469
ag147
aF0.45183999999999985
atbF1
tp1579
a(g6
(g7
(I0
tS'b'
tRp1580
(I1
(I3
tg10
I00
(lp1581
g812
ag246
aF0.5747199999999999
atbF1
tp1582
a(g6
(g7
(I0
tS'b'
tRp1583
(I1
(I3
tg10
I00
(lp1584
g932
ag1019
aF0.72992000000000001
atbF0
tp1585
a(g6
(g7
(I0
tS'b'
tRp1586
(I1
(I3
tg10
I00
(lp1587
g1102
ag924
aF0.24192000000000002
atbF0
tp1588
a(g6
(g7
(I0
tS'b'
tRp1589
(I1
(I3
tg10
I00
(lp1590
g1491
ag205
aF0.076799999999999979
atbF0
tp1591
a(g6
(g7
(I0
tS'b'
tRp1592
(I1
(I3
tg10
I00
(lp1593
g555
ag217
aF0.23680000000000012
atbF1
tp1594
a(g6
(g7
(I0
tS'b'
tRp1595
(I1
(I3
tg10
I00
(lp1596
g550
ag57
aF0.60671999999999993
atbF0
tp1597
a(g6
(g7
(I0
tS'b'
tRp1598
(I1
(I3
tg10
I00
(lp1599
g859
ag443
aF0.10880000000000012
atbF1
tp1600
a(g6
(g7
(I0
tS'b'
tRp1601
(I1
(I3
tg10
I00
(lp1602
g882
ag217
aF0.73664000000000007
atbF0
tp1603
a(g6
(g7
(I0
tS'b'
tRp1604
(I1
(I3
tg10
I00
(lp1605
g92
ag1147
aF0.26079999999999998
atbF1
tp1606
a(g6
(g7
(I0
tS'b'
tRp1607
(I1
(I3
tg10
I00
(lp1608
g367
ag308
aF0.12288000000000016
atbF0
tp1609
a(g6
(g7
(I0
tS'b'
tRp1610
(I1
(I3
tg10
I00
(lp1611
g600
ag1554
aF0.24095999999999984
atbF0
tp1612
a(g6
(g7
(I0
tS'b'
tRp1613
(I1
(I3
tg10
I00
(lp1614
g274
ag920
aF0.071679999999999855
atbF0
tp1615
a(g6
(g7
(I0
tS'b'
tRp1616
(I1
(I3
tg10
I00
(lp1617
g456
ag1403
aF0.77600000000000002
atbF1
tp1618
a(g6
(g7
(I0
tS'b'
tRp1619
(I1
(I3
tg10
I00
(lp1620
g859
ag540
aF0.21023999999999987
atbF0
tp1621
a(g6
(g7
(I0
tS'b'
tRp1622
(I1
(I3
tg10
I00
(lp1623
g1354
a(I2
I0
I1
I2
I1
tp1624
aF0.16672000000000009
atbF0
tp1625
a(g6
(g7
(I0
tS'b'
tRp1626
(I1
(I3
tg10
I00
(lp1627
g495
a(I2
I0
I1
I0
I1
tp1628
aF0.1836799999999999
atbF0
tp1629
a(g6
(g7
(I0
tS'b'
tRp1630
(I1
(I3
tg10
I00
(lp1631
(I0
I0
I0
I1
I2
tp1632
ag1550
aF0.81215999999999999
atbF0
tp1633
a(g6
(g7
(I0
tS'b'
tRp1634
(I1
(I3
tg10
I00
(lp1635
g1354
ag521
aF0.21472000000000013
atbF1
tp1636
a(g6
(g7
(I0
tS'b'
tRp1637
(I1
(I3
tg10
I00
(lp1638
g1330
ag324
aF0.019519999999999982
atbF0
tp1639
a(g6
(g7
(I0
tS'b'
tRp1640
(I1
(I3
tg10
I00
(lp1641
g1354
ag479
aF0.20383999999999991
atbF1
tp1642
a(g6
(g7
(I0
tS'b'
tRp1643
(I1
(I3
tg10
I00
(lp1644
g550
ag307
aF0.012479999999999936
atbF0
tp1645
a(g6
(g7
(I0
tS'b'
tRp1646
(I1
(I3
tg10
I00
(lp1647
(I0
I0
I1
I1
I2
tp1648
ag93
aF0.86847999999999992
atbF1
tp1649
a(g6
(g7
(I0
tS'b'
tRp1650
(I1
(I3
tg10
I00
(lp1651
g883
a(I2
I2
I0
I0
I0
tp1652
aF0.12575999999999987
atbF0
tp1653
a(g6
(g7
(I0
tS'b'
tRp1654
(I1
(I3
tg10
I00
(lp1655
g805
ag1086
aF0.073280000000000123
atbF0
tp1656
a(g6
(g7
(I0
tS'b'
tRp1657
(I1
(I3
tg10
I00
(lp1658
g793
ag555
aF0.32319999999999993
atbF0
tp1659
a(g6
(g7
(I0
tS'b'
tRp1660
(I1
(I3
tg10
I00
(lp1661
g495
ag297
aF0.42655999999999988
atbF0
tp1662
a(g6
(g7
(I0
tS'b'
tRp1663
(I1
(I3
tg10
I00
(lp1664
g152
ag911
aF0.064000000000000057
atbF1
tp1665
a(g6
(g7
(I0
tS'b'
tRp1666
(I1
(I3
tg10
I00
(lp1667
g251
ag1103
aF0.4639999999999998
atbF1
tp1668
a(g6
(g7
(I0
tS'b'
tRp1669
(I1
(I3
tg10
I00
(lp1670
g883
ag1094
aF0.59039999999999992
atbF1
tp1671
a(g6
(g7
(I0
tS'b'
tRp1672
(I1
(I3
tg10
I00
(lp1673
g188
ag924
aF0.58623999999999998
atbF0
tp1674
a(g6
(g7
(I0
tS'b'
tRp1675
(I1
(I3
tg10
I00
(lp1676
g246
a(I2
I1
I1
I1
I2
tp1677
aF0.25151999999999997
atbF0
tp1678
a(g6
(g7
(I0
tS'b'
tRp1679
(I1
(I3
tg10
I00
(lp1680
g142
ag75
aF0.28383999999999998
atbF0
tp1681
a(g6
(g7
(I0
tS'b'
tRp1682
(I1
(I3
tg10
I00
(lp1683
g883
a(I0
I1
I2
I1
I2
tp1684
aF0.087999999999999856
atbF1
tp1685
a(g6
(g7
(I0
tS'b'
tRp1686
(I1
(I3
tg10
I00
(lp1687
g251
ag924
aF0.62783999999999995
atbF0
tp1688
a(g6
(g7
(I0
tS'b'
tRp1689
(I1
(I3
tg10
I00
(lp1690
g834
ag194
aF0.36383999999999994
atbF0
tp1691
a(g6
(g7
(I0
tS'b'
tRp1692
(I1
(I3
tg10
I00
(lp1693
g1033
ag1520
aF0.60032000000000008
atbF1
tp1694
asg640
(lp1695
(g1311
F0.97872340425531912
tp1696
a(g1314
F0.041666666666666664
tp1697
a(g1317
F1
tp1698
a(g1320
F1
tp1699
a(g1324
F0
tp1700
a(g1328
F1
tp1701
a(g1332
F0.97916666666666663
tp1702
a(g1335
F1
tp1703
a(g1338
F1
tp1704
a(g1341
F0.93999999999999995
tp1705
a(g1344
F0.97999999999999998
tp1706
a(g1347
F0.8936170212765957
tp1707
a(g1351
F0
tp1708
a(g1356
F0
tp1709
a(g1359
F0.020408163265306121
tp1710
a(g1362
F0.97826086956521741
tp1711
a(g1365
F0.083333333333333329
tp1712
a(g1368
F1
tp1713
a(g1371
F0.93617021276595747
tp1714
a(g1374
F1
tp1715
a(g1377
F0.063829787234042548
tp1716
a(g1380
F0.11363636363636363
tp1717
a(g1383
F0.97826086956521741
tp1718
a(g1386
F1
tp1719
a(g1389
F0.97777777777777775
tp1720
a(g1392
F0.97826086956521741
tp1721
a(g1395
F0.020408163265306121
tp1722
a(g1398
F0.97959183673469385
tp1723
a(g1401
F0.063829787234042548
tp1724
a(g1405
F0.97959183673469385
tp1725
a(g1408
F1
tp1726
a(g1411
F0
tp1727
a(g1414
F0
tp1728
a(g1417
F0.9555555555555556
tp1729
a(g1420
F0.95652173913043481
tp1730
a(g1423
F0
tp1731
a(g1426
F1
tp1732
a(g1429
F0
tp1733
a(g1432
F1
tp1734
a(g1436
F0
tp1735
a(g1439
F1
tp1736
a(g1442
F0.97916666666666663
tp1737
a(g1445
F1
tp1738
a(g1448
F0.021276595744680851
tp1739
a(g1451
F0.97959183673469385
tp1740
a(g1454
F0.020833333333333332
tp1741
a(g1458
F0.95833333333333337
tp1742
a(g1461
F0
tp1743
a(g1464
F0.88888888888888884
tp1744
a(g1467
F1
tp1745
a(g1470
F0.045454545454545456
tp1746
a(g1474
F0
tp1747
a(g1477
F0.9375
tp1748
a(g1480
F1
tp1749
a(g1483
F0.97826086956521741
tp1750
a(g1486
F1
tp1751
a(g1489
F0
tp1752
a(g1493
F1
tp1753
a(g1496
F1
tp1754
a(g1499
F1
tp1755
a(g1503
F0.95918367346938771
tp1756
a(g1506
F0.0625
tp1757
a(g1509
F1
tp1758
a(g1512
F0.91489361702127658
tp1759
a(g1515
F0.041666666666666664
tp1760
a(g1518
F0.95999999999999996
tp1761
a(g1522
F0
tp1762
a(g1525
F1
tp1763
a(g1528
F0.040816326530612242
tp1764
a(g1531
F1
tp1765
a(g1534
F0.95833333333333337
tp1766
a(g1538
F0.044444444444444446
tp1767
a(g1541
F0
tp1768
a(g1545
F0
tp1769
a(g1548
F0.041666666666666664
tp1770
a(g1552
F1
tp1771
a(g1556
F0
tp1772
a(g1559
F0.93478260869565222
tp1773
a(g1562
F0.020408163265306121
tp1774
a(g1565
F0
tp1775
a(g1568
F0.020408163265306121
tp1776
a(g1571
F0.061224489795918366
tp1777
a(g1574
F0.045454545454545456
tp1778
a(g1577
F0.97916666666666663
tp1779
a(g1580
F0
tp1780
a(g1583
F0.97959183673469385
tp1781
a(g1586
F0.97916666666666663
tp1782
a(g1589
F0.020408163265306121
tp1783
a(g1592
F0.1111111111111111
tp1784
a(g1595
F0.10000000000000001
tp1785
a(g1598
F0
tp1786
a(g1601
F1
tp1787
a(g1604
F0
tp1788
a(g1607
F0.040816326530612242
tp1789
a(g1610
F0.97916666666666663
tp1790
a(g1613
F0.9375
tp1791
a(g1616
F1
tp1792
a(g1619
F0
tp1793
a(g1622
F0.95833333333333337
tp1794
a(g1626
F0
tp1795
a(g1630
F1
tp1796
a(g1634
F0.95652173913043481
tp1797
a(g1637
F0.97959183673469385
tp1798
a(g1640
F1
tp1799
a(g1643
F1
tp1800
a(g1646
F0.91489361702127658
tp1801
a(g1650
F1
tp1802
a(g1654
F0
tp1803
a(g1657
F0.97727272727272729
tp1804
a(g1660
F0.063829787234042548
tp1805
a(g1663
F0.0625
tp1806
a(g1666
F0
tp1807
a(g1669
F0.93333333333333335
tp1808
a(g1672
F1
tp1809
a(g1675
F0.95999999999999996
tp1810
a(g1679
F0.95744680851063835
tp1811
a(g1682
F0.021739130434782608
tp1812
a(g1686
F0.95918367346938771
tp1813
a(g1689
F0.97916666666666663
tp1814
a(g1692
F0
tp1815
ass.